	.attribute	4, 16
	.attribute	5, "rv32i2p1"
	.file	"program.c"
	.file	0 "/home/zeb/Desktop/RISCV_Internals" "program.c" md5 0x5e7779e26c4aa4a8ef71c7aafdc5ab84
	.file	1 "/usr/bin/../lib/clang/20/include" "stdint.h" md5 0xcd0b4737a870b7e85bf9cf24813fb26c
	.section	.text.init,"ax",@progbits
	.globl	_start                          # -- Begin function _start
	.p2align	2
	.type	_start,@function
_start:                                 # @_start
.Lfunc_begin0:
	.loc	0 81 0                          # program.c:81:0
	.cfi_sections .debug_frame
	.cfi_startproc
# %bb.0:
	addi	sp, sp, -144
	.cfi_def_cfa_offset 144
	sw	ra, 140(sp)                     # 4-byte Folded Spill
	sw	s0, 136(sp)                     # 4-byte Folded Spill
	sw	s1, 132(sp)                     # 4-byte Folded Spill
	sw	s2, 128(sp)                     # 4-byte Folded Spill
	sw	s3, 124(sp)                     # 4-byte Folded Spill
	sw	s4, 120(sp)                     # 4-byte Folded Spill
	sw	s5, 116(sp)                     # 4-byte Folded Spill
	sw	s6, 112(sp)                     # 4-byte Folded Spill
	sw	s7, 108(sp)                     # 4-byte Folded Spill
	sw	s8, 104(sp)                     # 4-byte Folded Spill
	sw	s9, 100(sp)                     # 4-byte Folded Spill
	sw	s10, 96(sp)                     # 4-byte Folded Spill
	sw	s11, 92(sp)                     # 4-byte Folded Spill
	.cfi_offset ra, -4
	.cfi_offset s0, -8
	.cfi_offset s1, -12
	.cfi_offset s2, -16
	.cfi_offset s3, -20
	.cfi_offset s4, -24
	.cfi_offset s5, -28
	.cfi_offset s6, -32
	.cfi_offset s7, -36
	.cfi_offset s8, -40
	.cfi_offset s9, -44
	.cfi_offset s10, -48
	.cfi_offset s11, -52
	li	s8, 0
	li	s4, 0
	li	s1, 0
	li	s6, 0
	lui	a7, 128
	lui	a0, 73
	lui	a1, 29
	lui	t0, 15
	lui	a2, 1
	lui	a3, 3841
	lui	a4, 4081
	lui	t6, 20
	li	s2, 256
	li	s11, -256
	li	a5, 25
	lui	a6, 28
	li	t1, 15
	lui	t2, 44
	lui	ra, 7
	lui	t3, 37
	lui	s7, 15
	li	s0, 256
	lui	t5, 15
	addi	a7, a7, -1024
	sw	a7, 24(sp)                      # 4-byte Folded Spill
	addi	a0, a0, 992
	sw	a0, 44(sp)                      # 4-byte Folded Spill
	addi	a0, a1, 1216
	sw	a0, 60(sp)                      # 4-byte Folded Spill
	addi	a1, t0, -1440
	addi	a2, a2, 2
	sw	a2, 36(sp)                      # 4-byte Folded Spill
	addi	a3, a3, -1
	addi	a0, a4, -241
	slli	t4, a5, 11
	addi	a2, a6, -2048
.Ltmp0:
	#DEBUG_VALUE: _start:FRACTION_BITS <- 8
	#DEBUG_VALUE: _start:ONE <- 256
	#DEBUG_VALUE: _start:s0_x <- 81920
	#DEBUG_VALUE: _start:s0_y <- 61440
	#DEBUG_VALUE: _start:s0_vx <- 0
	#DEBUG_VALUE: _start:s0_vy <- 0
	#DEBUG_VALUE: _start:s1_x <- 51200
	#DEBUG_VALUE: _start:s1_y <- 61440
	#DEBUG_VALUE: _start:s1_vx <- 0
	#DEBUG_VALUE: _start:s1_vy <- 256
	#DEBUG_VALUE: _start:s2_x <- 112640
	#DEBUG_VALUE: _start:s2_y <- 61440
	#DEBUG_VALUE: _start:s2_vx <- 0
	#DEBUG_VALUE: _start:s2_vy <- -256
	#DEBUG_VALUE: _start:max_x_bounds <- 159744
	#DEBUG_VALUE: _start:max_y_bounds <- 118784
	#DEBUG_VALUE: _start:G_M0 <- 150000
	#DEBUG_VALUE: _start:G_M1 <- 30000
	#DEBUG_VALUE: _start:G_M2 <- 30000
	sw	a2, 88(sp)                      # 4-byte Folded Spill
.Ltmp1:
	.loc	0 84 25 prologue_end            # program.c:84:25
	sw	a3, 1024(zero)
	sw	a1, 72(sp)                      # 4-byte Folded Spill
	.loc	0 86 25                         # program.c:86:25
	addi	a1, a1, 1680
	sw	a1, 1028(zero)
	slli	t1, t1, 8
	sw	t1, 32(sp)                      # 4-byte Folded Spill
	.loc	0 88 25                         # program.c:88:25
	sw	a0, 1032(zero)
	addi	a0, t2, -224
	sw	a0, 16(sp)                      # 4-byte Folded Spill
	addi	a0, ra, 1328
	sw	a0, 12(sp)                      # 4-byte Folded Spill
	addi	a0, t3, -1552
	sw	a0, 8(sp)                       # 4-byte Folded Spill
	lui	s3, 15
	j	.LBB0_2
.Ltmp2:
.LBB0_1:                                #   in Loop: Header=BB0_2 Depth=1
	#DEBUG_VALUE: _start:s2_vx <- $x24
	#DEBUG_VALUE: _start:s2_x <- [DW_OP_plus_uconst 88] [$x2+0]
	#DEBUG_VALUE: _start:s1_vy <- $x8
	#DEBUG_VALUE: _start:s1_vx <- $x20
	#DEBUG_VALUE: _start:s1_y <- $x30
	#DEBUG_VALUE: _start:s1_x <- $x29
	#DEBUG_VALUE: _start:s0_vy <- $x9
	#DEBUG_VALUE: _start:s0_vx <- $x22
	#DEBUG_VALUE: _start:s0_y <- $x19
	#DEBUG_VALUE: _start:s0_x <- $x31
	#DEBUG_VALUE: _start:G_M2 <- 30000
	#DEBUG_VALUE: _start:G_M1 <- 30000
	#DEBUG_VALUE: _start:G_M0 <- 150000
	#DEBUG_VALUE: _start:max_y_bounds <- 118784
	#DEBUG_VALUE: _start:max_x_bounds <- 159744
	#DEBUG_VALUE: _start:ONE <- 256
	#DEBUG_VALUE: _start:FRACTION_BITS <- 8
	#DEBUG_VALUE: _start:s2_y <- $x23
	#DEBUG_VALUE: _start:s2_vy <- $x27
	.loc	0 232 34                        # program.c:232:34
	srli	a0, t6, 8
.Ltmp3:
	#DEBUG_VALUE: raw_s0_x <- $x10
	#DEBUG_VALUE: raw_s0_y <- [DW_OP_constu 8, DW_OP_shr, DW_OP_stack_value] $x19
	.loc	0 235 53                        # program.c:235:53
	slli	a1, s3, 2
	.loc	0 237 34                        # program.c:237:34
	srli	a2, t4, 8
.Ltmp4:
	#DEBUG_VALUE: raw_s1_x <- $x12
	#DEBUG_VALUE: raw_s1_y <- [DW_OP_constu 8, DW_OP_shr, DW_OP_stack_value] $x30
	.loc	0 240 53                        # program.c:240:53
	slli	a3, t5, 2
	lw	a5, 24(sp)                      # 4-byte Folded Reload
	.loc	0 235 53                        # program.c:235:53
	and	a1, a1, a5
	.loc	0 235 60 is_stmt 0              # program.c:235:60
	lui	a4, 128
	or	a0, a0, a4
.Ltmp5:
	or	a0, a0, a1
	lw	a1, 88(sp)                      # 4-byte Folded Reload
	.loc	0 242 34 is_stmt 1              # program.c:242:34
	srli	a1, a1, 8
.Ltmp6:
	#DEBUG_VALUE: raw_s2_x <- $x11
	#DEBUG_VALUE: raw_s2_y <- [DW_OP_constu 8, DW_OP_shr, DW_OP_stack_value] $x23
	.loc	0 240 53                        # program.c:240:53
	and	a3, a3, a5
	.loc	0 240 60 is_stmt 0              # program.c:240:60
	lui	a4, 16640
	or	a2, a2, a4
.Ltmp7:
	or	a2, a2, a3
	.loc	0 245 53 is_stmt 1              # program.c:245:53
	slli	a3, s7, 2
	and	a3, a3, a5
	.loc	0 245 60 is_stmt 0              # program.c:245:60
	lui	a4, 33024
	or	a1, a1, a4
.Ltmp8:
	or	a1, a1, a3
	.loc	0 235 28 is_stmt 1              # program.c:235:28
	sw	a0, 512(zero)
	.loc	0 240 28                        # program.c:240:28
	sw	a2, 516(zero)
.Ltmp9:
	.loc	0 24 5                          # program.c:24:5
	lui	a0, 32
.Ltmp10:
	.loc	0 245 28                        # program.c:245:28
	sw	a1, 520(zero)
.Ltmp11:
	#DEBUG_VALUE: delay:count <- 131072
	.loc	0 24 5                          # program.c:24:5
	#APP
.Ltmp12:
	addi	a0, a0, -1
	bnez	a0, .Ltmp12

	#NO_APP
.Ltmp13:
	#DEBUG_VALUE: delay:count <- $x10
.LBB0_2:                                # =>This Loop Header: Depth=1
                                        #     Child Loop BB0_5 Depth 2
                                        #     Child Loop BB0_8 Depth 2
                                        #     Child Loop BB0_13 Depth 2
                                        #     Child Loop BB0_21 Depth 2
                                        #     Child Loop BB0_24 Depth 2
                                        #     Child Loop BB0_30 Depth 2
                                        #     Child Loop BB0_38 Depth 2
                                        #     Child Loop BB0_41 Depth 2
                                        #     Child Loop BB0_46 Depth 2
                                        #     Child Loop BB0_54 Depth 2
                                        #     Child Loop BB0_57 Depth 2
                                        #     Child Loop BB0_63 Depth 2
                                        #     Child Loop BB0_71 Depth 2
                                        #     Child Loop BB0_74 Depth 2
                                        #     Child Loop BB0_80 Depth 2
                                        #     Child Loop BB0_83 Depth 2
                                        #     Child Loop BB0_88 Depth 2
                                        #     Child Loop BB0_96 Depth 2
                                        #     Child Loop BB0_99 Depth 2
                                        #     Child Loop BB0_104 Depth 2
                                        #     Child Loop BB0_112 Depth 2
                                        #     Child Loop BB0_115 Depth 2
                                        #     Child Loop BB0_120 Depth 2
                                        #     Child Loop BB0_128 Depth 2
                                        #     Child Loop BB0_131 Depth 2
                                        #     Child Loop BB0_136 Depth 2
                                        #     Child Loop BB0_144 Depth 2
                                        #     Child Loop BB0_147 Depth 2
                                        #     Child Loop BB0_153 Depth 2
                                        #     Child Loop BB0_156 Depth 2
                                        #     Child Loop BB0_161 Depth 2
                                        #     Child Loop BB0_169 Depth 2
                                        #     Child Loop BB0_172 Depth 2
                                        #     Child Loop BB0_177 Depth 2
                                        #     Child Loop BB0_185 Depth 2
                                        #     Child Loop BB0_188 Depth 2
                                        #     Child Loop BB0_193 Depth 2
                                        #     Child Loop BB0_201 Depth 2
                                        #     Child Loop BB0_204 Depth 2
                                        #     Child Loop BB0_209 Depth 2
                                        #     Child Loop BB0_217 Depth 2
                                        #     Child Loop BB0_220 Depth 2
                                        #     Child Loop BB0_232 Depth 2
                                        #     Child Loop BB0_235 Depth 2
                                        #     Child Loop BB0_242 Depth 2
                                        #     Child Loop BB0_245 Depth 2
                                        #     Child Loop BB0_254 Depth 2
                                        #     Child Loop BB0_257 Depth 2
                                        #     Child Loop BB0_264 Depth 2
                                        #     Child Loop BB0_267 Depth 2
                                        #     Child Loop BB0_294 Depth 2
                                        #     Child Loop BB0_297 Depth 2
                                        #     Child Loop BB0_304 Depth 2
                                        #     Child Loop BB0_307 Depth 2
                                        #     Child Loop BB0_316 Depth 2
                                        #     Child Loop BB0_319 Depth 2
                                        #     Child Loop BB0_326 Depth 2
                                        #     Child Loop BB0_329 Depth 2
                                        #     Child Loop BB0_350 Depth 2
                                        #     Child Loop BB0_357 Depth 2
                                        #     Child Loop BB0_363 Depth 2
                                        #     Child Loop BB0_368 Depth 2
                                        #     Child Loop BB0_374 Depth 2
                                        #     Child Loop BB0_379 Depth 2
                                        #     Child Loop BB0_385 Depth 2
                                        #     Child Loop BB0_390 Depth 2
	#DEBUG_VALUE: _start:G_M2 <- 30000
	#DEBUG_VALUE: _start:G_M1 <- 30000
	#DEBUG_VALUE: _start:G_M0 <- 150000
	#DEBUG_VALUE: _start:max_y_bounds <- 118784
	#DEBUG_VALUE: _start:max_x_bounds <- 159744
	#DEBUG_VALUE: _start:ONE <- 256
	#DEBUG_VALUE: _start:FRACTION_BITS <- 8
	#DEBUG_VALUE: _start:s0_x <- $x31
	#DEBUG_VALUE: _start:s0_y <- $x19
	#DEBUG_VALUE: _start:s0_vx <- $x22
	#DEBUG_VALUE: _start:s0_vy <- $x9
	#DEBUG_VALUE: _start:s1_x <- $x29
	#DEBUG_VALUE: _start:s1_y <- $x30
	#DEBUG_VALUE: _start:s1_vx <- $x20
	#DEBUG_VALUE: _start:s1_vy <- $x8
	#DEBUG_VALUE: _start:s2_x <- [DW_OP_plus_uconst 88] [$x2+0]
	#DEBUG_VALUE: _start:s2_y <- $x23
	#DEBUG_VALUE: _start:s2_vx <- $x24
	#DEBUG_VALUE: _start:s2_vy <- $x27
	.loc	0 151 27                        # program.c:151:27
	sub	s9, t4, t6
.Ltmp14:
	#DEBUG_VALUE: dx <- $x25
	.loc	0 152 27                        # program.c:152:27
	sub	a3, t5, s3
.Ltmp15:
	#DEBUG_VALUE: dy <- $x13
	.loc	0 153 26                        # program.c:153:26
	srai	a2, s9, 31
	.loc	0 154 26                        # program.c:154:26
	srai	a0, a3, 31
	.loc	0 153 26                        # program.c:153:26
	xor	a1, s9, a2
	sw	a3, 56(sp)                      # 4-byte Folded Spill
.Ltmp16:
	#DEBUG_VALUE: dy <- [DW_OP_plus_uconst 56] [$x2+0]
	.loc	0 154 26                        # program.c:154:26
	xor	a3, a3, a0
	.loc	0 153 26                        # program.c:153:26
	sub	a1, a1, a2
.Ltmp17:
	#DEBUG_VALUE: abs_dx <- $x11
	.loc	0 154 26                        # program.c:154:26
	sub	a3, a3, a0
.Ltmp18:
	#DEBUG_VALUE: abs_dy <- $x13
	.loc	0 0 26 is_stmt 0                # program.c:0:26
	sw	a1, 52(sp)                      # 4-byte Folded Spill
.Ltmp19:
	#DEBUG_VALUE: abs_dx <- [DW_OP_plus_uconst 52] [$x2+0]
	sw	a3, 48(sp)                      # 4-byte Folded Spill
.Ltmp20:
	#DEBUG_VALUE: abs_dy <- [DW_OP_plus_uconst 48] [$x2+0]
	.loc	0 155 28 is_stmt 1              # program.c:155:28
	add	a3, a1, a3
.Ltmp21:
	#DEBUG_VALUE: r <- $x13
	.loc	0 0 28 is_stmt 0                # program.c:0:28
	lw	a0, 32(sp)                      # 4-byte Folded Reload
.Ltmp22:
	.loc	0 156 15 is_stmt 1              # program.c:156:15
	bltu	a0, a3, .LBB0_4
.Ltmp23:
# %bb.3:                                #   in Loop: Header=BB0_2 Depth=1
	#DEBUG_VALUE: r <- $x13
	#DEBUG_VALUE: abs_dy <- [DW_OP_plus_uconst 48] [$x2+0]
	#DEBUG_VALUE: abs_dx <- [DW_OP_plus_uconst 52] [$x2+0]
	#DEBUG_VALUE: dy <- [DW_OP_plus_uconst 56] [$x2+0]
	#DEBUG_VALUE: dx <- $x25
	#DEBUG_VALUE: _start:s2_vy <- $x27
	#DEBUG_VALUE: _start:s2_vx <- $x24
	#DEBUG_VALUE: _start:s2_y <- $x23
	#DEBUG_VALUE: _start:s2_x <- [DW_OP_plus_uconst 88] [$x2+0]
	#DEBUG_VALUE: _start:s1_vy <- $x8
	#DEBUG_VALUE: _start:s1_vx <- $x20
	#DEBUG_VALUE: _start:s1_y <- $x30
	#DEBUG_VALUE: _start:s1_x <- $x29
	#DEBUG_VALUE: _start:s0_vy <- $x9
	#DEBUG_VALUE: _start:s0_vx <- $x22
	#DEBUG_VALUE: _start:s0_y <- $x19
	#DEBUG_VALUE: _start:s0_x <- $x31
	#DEBUG_VALUE: _start:G_M2 <- 30000
	#DEBUG_VALUE: _start:G_M1 <- 30000
	#DEBUG_VALUE: _start:G_M0 <- 150000
	#DEBUG_VALUE: _start:max_y_bounds <- 118784
	#DEBUG_VALUE: _start:max_x_bounds <- 159744
	#DEBUG_VALUE: _start:ONE <- 256
	#DEBUG_VALUE: _start:FRACTION_BITS <- 8
	.loc	0 0 15 is_stmt 0                # program.c:0:15
	lw	a3, 32(sp)                      # 4-byte Folded Reload
.Ltmp24:
.LBB0_4:                                #   in Loop: Header=BB0_2 Depth=1
	#DEBUG_VALUE: abs_dy <- [DW_OP_plus_uconst 48] [$x2+0]
	#DEBUG_VALUE: abs_dx <- [DW_OP_plus_uconst 52] [$x2+0]
	#DEBUG_VALUE: dy <- [DW_OP_plus_uconst 56] [$x2+0]
	#DEBUG_VALUE: dx <- $x25
	#DEBUG_VALUE: _start:s2_vy <- $x27
	#DEBUG_VALUE: _start:s2_vx <- $x24
	#DEBUG_VALUE: _start:s2_y <- $x23
	#DEBUG_VALUE: _start:s2_x <- [DW_OP_plus_uconst 88] [$x2+0]
	#DEBUG_VALUE: _start:s1_vy <- $x8
	#DEBUG_VALUE: _start:s1_vx <- $x20
	#DEBUG_VALUE: _start:s1_y <- $x30
	#DEBUG_VALUE: _start:s1_x <- $x29
	#DEBUG_VALUE: _start:s0_vy <- $x9
	#DEBUG_VALUE: _start:s0_vx <- $x22
	#DEBUG_VALUE: _start:s0_y <- $x19
	#DEBUG_VALUE: _start:s0_x <- $x31
	#DEBUG_VALUE: _start:G_M2 <- 30000
	#DEBUG_VALUE: _start:G_M1 <- 30000
	#DEBUG_VALUE: _start:G_M0 <- 150000
	#DEBUG_VALUE: _start:max_y_bounds <- 118784
	#DEBUG_VALUE: _start:max_x_bounds <- 159744
	#DEBUG_VALUE: _start:ONE <- 256
	#DEBUG_VALUE: _start:FRACTION_BITS <- 8
	#DEBUG_VALUE: r <- $x13
	li	a0, 0
	.loc	0 157 27 is_stmt 1              # program.c:157:27
	srli	a3, a3, 8
.Ltmp25:
	#DEBUG_VALUE: r_int <- $x13
	#DEBUG_VALUE: soft_mul:a <- $x13
	#DEBUG_VALUE: soft_mul:b <- $x13
	#DEBUG_VALUE: soft_mul:ua <- $x13
	#DEBUG_VALUE: soft_mul:ub <- $x13
	#DEBUG_VALUE: soft_mul:res <- 0
	#DEBUG_VALUE: soft_mul:sign <- 1
	.loc	0 0 27 is_stmt 0                # program.c:0:27
	mv	a1, a3
	mv	a4, a3
.Ltmp26:
.LBB0_5:                                #   Parent Loop BB0_2 Depth=1
                                        # =>  This Inner Loop Header: Depth=2
	#DEBUG_VALUE: soft_mul:sign <- 1
	#DEBUG_VALUE: soft_mul:b <- $x13
	#DEBUG_VALUE: soft_mul:a <- $x13
	#DEBUG_VALUE: r_int <- $x13
	#DEBUG_VALUE: abs_dy <- [DW_OP_plus_uconst 48] [$x2+0]
	#DEBUG_VALUE: abs_dx <- [DW_OP_plus_uconst 52] [$x2+0]
	#DEBUG_VALUE: dy <- [DW_OP_plus_uconst 56] [$x2+0]
	#DEBUG_VALUE: dx <- $x25
	#DEBUG_VALUE: _start:s2_vy <- $x27
	#DEBUG_VALUE: _start:s2_vx <- $x24
	#DEBUG_VALUE: _start:s2_y <- $x23
	#DEBUG_VALUE: _start:s2_x <- [DW_OP_plus_uconst 88] [$x2+0]
	#DEBUG_VALUE: _start:s1_vy <- $x8
	#DEBUG_VALUE: _start:s1_vx <- $x20
	#DEBUG_VALUE: _start:s1_y <- $x30
	#DEBUG_VALUE: _start:s1_x <- $x29
	#DEBUG_VALUE: _start:s0_vy <- $x9
	#DEBUG_VALUE: _start:s0_vx <- $x22
	#DEBUG_VALUE: _start:s0_y <- $x19
	#DEBUG_VALUE: _start:s0_x <- $x31
	#DEBUG_VALUE: _start:G_M2 <- 30000
	#DEBUG_VALUE: _start:G_M1 <- 30000
	#DEBUG_VALUE: _start:G_M0 <- 150000
	#DEBUG_VALUE: _start:max_y_bounds <- 118784
	#DEBUG_VALUE: _start:max_x_bounds <- 159744
	#DEBUG_VALUE: _start:ONE <- 256
	#DEBUG_VALUE: _start:FRACTION_BITS <- 8
	#DEBUG_VALUE: soft_mul:ua <- $x14
	#DEBUG_VALUE: soft_mul:ub <- $x11
	#DEBUG_VALUE: soft_mul:res <- $x10
	.loc	0 41 16 is_stmt 1               # program.c:41:16
	slli	a5, a1, 31
.Ltmp27:
	.loc	0 43 12                         # program.c:43:12
	srli	a1, a1, 1
.Ltmp28:
	#DEBUG_VALUE: soft_mul:ub <- $x11
	.loc	0 41 16                         # program.c:41:16
	srai	a5, a5, 31
	and	a5, a5, a4
	add	a0, a5, a0
.Ltmp29:
	#DEBUG_VALUE: soft_mul:res <- $x10
	.loc	0 42 12                         # program.c:42:12
	slli	a4, a4, 1
.Ltmp30:
	#DEBUG_VALUE: soft_mul:ua <- $x14
	.loc	0 40 5                          # program.c:40:5
	bnez	a1, .LBB0_5
.Ltmp31:
# %bb.6:                                #   in Loop: Header=BB0_2 Depth=1
	#DEBUG_VALUE: r_int <- $x13
	#DEBUG_VALUE: abs_dy <- [DW_OP_plus_uconst 48] [$x2+0]
	#DEBUG_VALUE: abs_dx <- [DW_OP_plus_uconst 52] [$x2+0]
	#DEBUG_VALUE: dy <- [DW_OP_plus_uconst 56] [$x2+0]
	#DEBUG_VALUE: dx <- $x25
	#DEBUG_VALUE: _start:s2_vy <- $x27
	#DEBUG_VALUE: _start:s2_vx <- $x24
	#DEBUG_VALUE: _start:s2_y <- $x23
	#DEBUG_VALUE: _start:s2_x <- [DW_OP_plus_uconst 88] [$x2+0]
	#DEBUG_VALUE: _start:s1_vy <- $x8
	#DEBUG_VALUE: _start:s1_vx <- $x20
	#DEBUG_VALUE: _start:s1_y <- $x30
	#DEBUG_VALUE: _start:s1_x <- $x29
	#DEBUG_VALUE: _start:s0_vy <- $x9
	#DEBUG_VALUE: _start:s0_vx <- $x22
	#DEBUG_VALUE: _start:s0_y <- $x19
	#DEBUG_VALUE: _start:s0_x <- $x31
	#DEBUG_VALUE: _start:G_M2 <- 30000
	#DEBUG_VALUE: _start:G_M1 <- 30000
	#DEBUG_VALUE: _start:G_M0 <- 150000
	#DEBUG_VALUE: _start:max_y_bounds <- 118784
	#DEBUG_VALUE: _start:max_x_bounds <- 159744
	#DEBUG_VALUE: _start:ONE <- 256
	#DEBUG_VALUE: _start:FRACTION_BITS <- 8
	#DEBUG_VALUE: soft_mul:a <- $x13
	#DEBUG_VALUE: soft_mul:sign <- undef
	#DEBUG_VALUE: soft_mul:b <- undef
	#DEBUG_VALUE: soft_mul:ua <- $x13
	#DEBUG_VALUE: soft_mul:ub <- undef
	#DEBUG_VALUE: soft_mul:res <- 0
	.loc	0 0 5 is_stmt 0                 # program.c:0:5
	li	a1, 0
.Ltmp32:
	.loc	0 40 5                          # program.c:40:5
	beqz	a0, .LBB0_9
.Ltmp33:
# %bb.7:                                #   in Loop: Header=BB0_2 Depth=1
	#DEBUG_VALUE: soft_mul:res <- 0
	#DEBUG_VALUE: soft_mul:ua <- $x13
	#DEBUG_VALUE: soft_mul:a <- $x13
	#DEBUG_VALUE: r_int <- $x13
	#DEBUG_VALUE: abs_dy <- [DW_OP_plus_uconst 48] [$x2+0]
	#DEBUG_VALUE: abs_dx <- [DW_OP_plus_uconst 52] [$x2+0]
	#DEBUG_VALUE: dy <- [DW_OP_plus_uconst 56] [$x2+0]
	#DEBUG_VALUE: dx <- $x25
	#DEBUG_VALUE: _start:s2_vy <- $x27
	#DEBUG_VALUE: _start:s2_vx <- $x24
	#DEBUG_VALUE: _start:s2_y <- $x23
	#DEBUG_VALUE: _start:s2_x <- [DW_OP_plus_uconst 88] [$x2+0]
	#DEBUG_VALUE: _start:s1_vy <- $x8
	#DEBUG_VALUE: _start:s1_vx <- $x20
	#DEBUG_VALUE: _start:s1_y <- $x30
	#DEBUG_VALUE: _start:s1_x <- $x29
	#DEBUG_VALUE: _start:s0_vy <- $x9
	#DEBUG_VALUE: _start:s0_vx <- $x22
	#DEBUG_VALUE: _start:s0_y <- $x19
	#DEBUG_VALUE: _start:s0_x <- $x31
	#DEBUG_VALUE: _start:G_M2 <- 30000
	#DEBUG_VALUE: _start:G_M1 <- 30000
	#DEBUG_VALUE: _start:G_M0 <- 150000
	#DEBUG_VALUE: _start:max_y_bounds <- 118784
	#DEBUG_VALUE: _start:max_x_bounds <- 159744
	#DEBUG_VALUE: _start:ONE <- 256
	#DEBUG_VALUE: _start:FRACTION_BITS <- 8
	.loc	0 38 11 is_stmt 1               # program.c:38:11
	srai	a4, a0, 31
	xor	a5, a0, a4
	sub	a4, a5, a4
.Ltmp34:
	#DEBUG_VALUE: soft_mul:b <- $x14
	#DEBUG_VALUE: soft_mul:ub <- $x14
.LBB0_8:                                #   Parent Loop BB0_2 Depth=1
                                        # =>  This Inner Loop Header: Depth=2
	#DEBUG_VALUE: soft_mul:ub <- $x14
	#DEBUG_VALUE: soft_mul:ua <- $x13
	#DEBUG_VALUE: abs_dy <- [DW_OP_plus_uconst 48] [$x2+0]
	#DEBUG_VALUE: abs_dx <- [DW_OP_plus_uconst 52] [$x2+0]
	#DEBUG_VALUE: dy <- [DW_OP_plus_uconst 56] [$x2+0]
	#DEBUG_VALUE: dx <- $x25
	#DEBUG_VALUE: _start:s2_vy <- $x27
	#DEBUG_VALUE: _start:s2_vx <- $x24
	#DEBUG_VALUE: _start:s2_y <- $x23
	#DEBUG_VALUE: _start:s2_x <- [DW_OP_plus_uconst 88] [$x2+0]
	#DEBUG_VALUE: _start:s1_vy <- $x8
	#DEBUG_VALUE: _start:s1_vx <- $x20
	#DEBUG_VALUE: _start:s1_y <- $x30
	#DEBUG_VALUE: _start:s1_x <- $x29
	#DEBUG_VALUE: _start:s0_vy <- $x9
	#DEBUG_VALUE: _start:s0_vx <- $x22
	#DEBUG_VALUE: _start:s0_y <- $x19
	#DEBUG_VALUE: _start:s0_x <- $x31
	#DEBUG_VALUE: _start:G_M2 <- 30000
	#DEBUG_VALUE: _start:G_M1 <- 30000
	#DEBUG_VALUE: _start:G_M0 <- 150000
	#DEBUG_VALUE: _start:max_y_bounds <- 118784
	#DEBUG_VALUE: _start:max_x_bounds <- 159744
	#DEBUG_VALUE: _start:ONE <- 256
	#DEBUG_VALUE: _start:FRACTION_BITS <- 8
	#DEBUG_VALUE: soft_mul:ua <- $x13
	#DEBUG_VALUE: soft_mul:ub <- $x14
	#DEBUG_VALUE: soft_mul:res <- $x11
	.loc	0 41 16                         # program.c:41:16
	slli	a5, a4, 31
.Ltmp35:
	.loc	0 43 12                         # program.c:43:12
	srli	a4, a4, 1
.Ltmp36:
	#DEBUG_VALUE: soft_mul:ub <- $x14
	.loc	0 41 16                         # program.c:41:16
	srai	a5, a5, 31
	and	a5, a5, a3
	add	a1, a5, a1
.Ltmp37:
	#DEBUG_VALUE: soft_mul:res <- $x11
	.loc	0 42 12                         # program.c:42:12
	slli	a3, a3, 1
.Ltmp38:
	#DEBUG_VALUE: soft_mul:ua <- $x13
	.loc	0 40 5                          # program.c:40:5
	bnez	a4, .LBB0_8
.Ltmp39:
.LBB0_9:                                #   in Loop: Header=BB0_2 Depth=1
	#DEBUG_VALUE: soft_mul:ua <- $x13
	#DEBUG_VALUE: abs_dy <- [DW_OP_plus_uconst 48] [$x2+0]
	#DEBUG_VALUE: abs_dx <- [DW_OP_plus_uconst 52] [$x2+0]
	#DEBUG_VALUE: dy <- [DW_OP_plus_uconst 56] [$x2+0]
	#DEBUG_VALUE: dx <- $x25
	#DEBUG_VALUE: _start:s2_vy <- $x27
	#DEBUG_VALUE: _start:s2_vx <- $x24
	#DEBUG_VALUE: _start:s2_y <- $x23
	#DEBUG_VALUE: _start:s2_x <- [DW_OP_plus_uconst 88] [$x2+0]
	#DEBUG_VALUE: _start:s1_vy <- $x8
	#DEBUG_VALUE: _start:s1_vx <- $x20
	#DEBUG_VALUE: _start:s1_y <- $x30
	#DEBUG_VALUE: _start:s1_x <- $x29
	#DEBUG_VALUE: _start:s0_vy <- $x9
	#DEBUG_VALUE: _start:s0_vx <- $x22
	#DEBUG_VALUE: _start:s0_y <- $x19
	#DEBUG_VALUE: _start:s0_x <- $x31
	#DEBUG_VALUE: _start:G_M2 <- 30000
	#DEBUG_VALUE: _start:G_M1 <- 30000
	#DEBUG_VALUE: _start:G_M0 <- 150000
	#DEBUG_VALUE: _start:max_y_bounds <- 118784
	#DEBUG_VALUE: _start:max_x_bounds <- 159744
	#DEBUG_VALUE: _start:ONE <- 256
	#DEBUG_VALUE: _start:FRACTION_BITS <- 8
	.loc	0 45 12                         # program.c:45:12
	bltz	a0, .LBB0_11
.Ltmp40:
# %bb.10:                               #   in Loop: Header=BB0_2 Depth=1
	#DEBUG_VALUE: abs_dy <- [DW_OP_plus_uconst 48] [$x2+0]
	#DEBUG_VALUE: abs_dx <- [DW_OP_plus_uconst 52] [$x2+0]
	#DEBUG_VALUE: dy <- [DW_OP_plus_uconst 56] [$x2+0]
	#DEBUG_VALUE: dx <- $x25
	#DEBUG_VALUE: _start:s2_vy <- $x27
	#DEBUG_VALUE: _start:s2_vx <- $x24
	#DEBUG_VALUE: _start:s2_y <- $x23
	#DEBUG_VALUE: _start:s2_x <- [DW_OP_plus_uconst 88] [$x2+0]
	#DEBUG_VALUE: _start:s1_vy <- $x8
	#DEBUG_VALUE: _start:s1_vx <- $x20
	#DEBUG_VALUE: _start:s1_y <- $x30
	#DEBUG_VALUE: _start:s1_x <- $x29
	#DEBUG_VALUE: _start:s0_vy <- $x9
	#DEBUG_VALUE: _start:s0_vx <- $x22
	#DEBUG_VALUE: _start:s0_y <- $x19
	#DEBUG_VALUE: _start:s0_x <- $x31
	#DEBUG_VALUE: _start:G_M2 <- 30000
	#DEBUG_VALUE: _start:G_M1 <- 30000
	#DEBUG_VALUE: _start:G_M0 <- 150000
	#DEBUG_VALUE: _start:max_y_bounds <- 118784
	#DEBUG_VALUE: _start:max_x_bounds <- 159744
	#DEBUG_VALUE: _start:ONE <- 256
	#DEBUG_VALUE: _start:FRACTION_BITS <- 8
	.loc	0 0 12 is_stmt 0                # program.c:0:12
	mv	a0, a1
.Ltmp41:
	#DEBUG_VALUE: r_cubed <- $x10
	.loc	0 161 32 is_stmt 1              # program.c:161:32
	srai	a3, s9, 8
.Ltmp42:
	#DEBUG_VALUE: scaled_dx <- $x13
	#DEBUG_VALUE: scaled_dy <- undef
	#DEBUG_VALUE: soft_mul:b <- $x13
	#DEBUG_VALUE: soft_mul:res <- 0
	#DEBUG_VALUE: soft_mul:sign <- 1
	#DEBUG_VALUE: soft_mul:a <- 30000
	.loc	0 38 11                         # program.c:38:11
	xor	a5, a3, a2
	sub	a5, a5, a2
.Ltmp43:
	#DEBUG_VALUE: soft_mul:b <- $x15
	#DEBUG_VALUE: soft_mul:sign <- undef
	#DEBUG_VALUE: soft_mul:ub <- $x15
	#DEBUG_VALUE: soft_mul:ua <- 30000
	.loc	0 0 11 is_stmt 0                # program.c:0:11
	li	a6, 0
.Ltmp44:
	.loc	0 40 5 is_stmt 1                # program.c:40:5
	bnez	a3, .LBB0_12
	j	.LBB0_14
.Ltmp45:
.LBB0_11:                               #   in Loop: Header=BB0_2 Depth=1
	#DEBUG_VALUE: soft_mul:ua <- $x13
	#DEBUG_VALUE: abs_dy <- [DW_OP_plus_uconst 48] [$x2+0]
	#DEBUG_VALUE: abs_dx <- [DW_OP_plus_uconst 52] [$x2+0]
	#DEBUG_VALUE: dy <- [DW_OP_plus_uconst 56] [$x2+0]
	#DEBUG_VALUE: dx <- $x25
	#DEBUG_VALUE: _start:s2_vy <- $x27
	#DEBUG_VALUE: _start:s2_vx <- $x24
	#DEBUG_VALUE: _start:s2_y <- $x23
	#DEBUG_VALUE: _start:s2_x <- [DW_OP_plus_uconst 88] [$x2+0]
	#DEBUG_VALUE: _start:s1_vy <- $x8
	#DEBUG_VALUE: _start:s1_vx <- $x20
	#DEBUG_VALUE: _start:s1_y <- $x30
	#DEBUG_VALUE: _start:s1_x <- $x29
	#DEBUG_VALUE: _start:s0_vy <- $x9
	#DEBUG_VALUE: _start:s0_vx <- $x22
	#DEBUG_VALUE: _start:s0_y <- $x19
	#DEBUG_VALUE: _start:s0_x <- $x31
	#DEBUG_VALUE: _start:G_M2 <- 30000
	#DEBUG_VALUE: _start:G_M1 <- 30000
	#DEBUG_VALUE: _start:G_M0 <- 150000
	#DEBUG_VALUE: _start:max_y_bounds <- 118784
	#DEBUG_VALUE: _start:max_x_bounds <- 159744
	#DEBUG_VALUE: _start:ONE <- 256
	#DEBUG_VALUE: _start:FRACTION_BITS <- 8
	.loc	0 45 12                         # program.c:45:12
	neg	a0, a1
.Ltmp46:
	#DEBUG_VALUE: r_cubed <- $x10
	.loc	0 161 32                        # program.c:161:32
	srai	a3, s9, 8
.Ltmp47:
	#DEBUG_VALUE: scaled_dx <- $x13
	#DEBUG_VALUE: scaled_dy <- undef
	#DEBUG_VALUE: soft_mul:b <- $x13
	#DEBUG_VALUE: soft_mul:res <- 0
	#DEBUG_VALUE: soft_mul:sign <- 1
	#DEBUG_VALUE: soft_mul:a <- 30000
	.loc	0 38 11                         # program.c:38:11
	xor	a5, a3, a2
	sub	a5, a5, a2
.Ltmp48:
	#DEBUG_VALUE: soft_mul:b <- $x15
	#DEBUG_VALUE: soft_mul:sign <- undef
	#DEBUG_VALUE: soft_mul:ub <- $x15
	#DEBUG_VALUE: soft_mul:ua <- 30000
	.loc	0 0 11 is_stmt 0                # program.c:0:11
	li	a6, 0
.Ltmp49:
	.loc	0 40 5 is_stmt 1                # program.c:40:5
	beqz	a3, .LBB0_14
.Ltmp50:
.LBB0_12:                               #   in Loop: Header=BB0_2 Depth=1
	#DEBUG_VALUE: soft_mul:ua <- 30000
	#DEBUG_VALUE: soft_mul:ub <- $x15
	#DEBUG_VALUE: soft_mul:b <- $x15
	#DEBUG_VALUE: soft_mul:a <- 30000
	#DEBUG_VALUE: soft_mul:res <- 0
	#DEBUG_VALUE: scaled_dx <- $x13
	#DEBUG_VALUE: r_cubed <- $x10
	#DEBUG_VALUE: abs_dy <- [DW_OP_plus_uconst 48] [$x2+0]
	#DEBUG_VALUE: abs_dx <- [DW_OP_plus_uconst 52] [$x2+0]
	#DEBUG_VALUE: dy <- [DW_OP_plus_uconst 56] [$x2+0]
	#DEBUG_VALUE: dx <- $x25
	#DEBUG_VALUE: _start:s2_vy <- $x27
	#DEBUG_VALUE: _start:s2_vx <- $x24
	#DEBUG_VALUE: _start:s2_y <- $x23
	#DEBUG_VALUE: _start:s2_x <- [DW_OP_plus_uconst 88] [$x2+0]
	#DEBUG_VALUE: _start:s1_vy <- $x8
	#DEBUG_VALUE: _start:s1_vx <- $x20
	#DEBUG_VALUE: _start:s1_y <- $x30
	#DEBUG_VALUE: _start:s1_x <- $x29
	#DEBUG_VALUE: _start:s0_vy <- $x9
	#DEBUG_VALUE: _start:s0_vx <- $x22
	#DEBUG_VALUE: _start:s0_y <- $x19
	#DEBUG_VALUE: _start:s0_x <- $x31
	#DEBUG_VALUE: _start:G_M2 <- 30000
	#DEBUG_VALUE: _start:G_M1 <- 30000
	#DEBUG_VALUE: _start:G_M0 <- 150000
	#DEBUG_VALUE: _start:max_y_bounds <- 118784
	#DEBUG_VALUE: _start:max_x_bounds <- 159744
	#DEBUG_VALUE: _start:ONE <- 256
	#DEBUG_VALUE: _start:FRACTION_BITS <- 8
	.loc	0 0 5 is_stmt 0                 # program.c:0:5
	addi	a2, ra, 1328
	mv	a4, a5
.Ltmp51:
.LBB0_13:                               #   Parent Loop BB0_2 Depth=1
                                        # =>  This Inner Loop Header: Depth=2
	#DEBUG_VALUE: soft_mul:b <- $x15
	#DEBUG_VALUE: soft_mul:a <- 30000
	#DEBUG_VALUE: scaled_dx <- $x13
	#DEBUG_VALUE: r_cubed <- $x10
	#DEBUG_VALUE: abs_dy <- [DW_OP_plus_uconst 48] [$x2+0]
	#DEBUG_VALUE: abs_dx <- [DW_OP_plus_uconst 52] [$x2+0]
	#DEBUG_VALUE: dy <- [DW_OP_plus_uconst 56] [$x2+0]
	#DEBUG_VALUE: dx <- $x25
	#DEBUG_VALUE: _start:s2_vy <- $x27
	#DEBUG_VALUE: _start:s2_vx <- $x24
	#DEBUG_VALUE: _start:s2_y <- $x23
	#DEBUG_VALUE: _start:s2_x <- [DW_OP_plus_uconst 88] [$x2+0]
	#DEBUG_VALUE: _start:s1_vy <- $x8
	#DEBUG_VALUE: _start:s1_vx <- $x20
	#DEBUG_VALUE: _start:s1_y <- $x30
	#DEBUG_VALUE: _start:s1_x <- $x29
	#DEBUG_VALUE: _start:s0_vy <- $x9
	#DEBUG_VALUE: _start:s0_vx <- $x22
	#DEBUG_VALUE: _start:s0_y <- $x19
	#DEBUG_VALUE: _start:s0_x <- $x31
	#DEBUG_VALUE: _start:G_M2 <- 30000
	#DEBUG_VALUE: _start:G_M1 <- 30000
	#DEBUG_VALUE: _start:G_M0 <- 150000
	#DEBUG_VALUE: _start:max_y_bounds <- 118784
	#DEBUG_VALUE: _start:max_x_bounds <- 159744
	#DEBUG_VALUE: _start:ONE <- 256
	#DEBUG_VALUE: _start:FRACTION_BITS <- 8
	#DEBUG_VALUE: soft_mul:res <- $x16
	#DEBUG_VALUE: soft_mul:ub <- $x14
	#DEBUG_VALUE: soft_mul:ua <- $x12
	.loc	0 41 16 is_stmt 1               # program.c:41:16
	slli	a7, a4, 31
.Ltmp52:
	.loc	0 43 12                         # program.c:43:12
	srli	a4, a4, 1
.Ltmp53:
	#DEBUG_VALUE: soft_mul:ub <- $x14
	.loc	0 41 16                         # program.c:41:16
	srai	a7, a7, 31
	and	a7, a7, a2
	add	a6, a7, a6
.Ltmp54:
	#DEBUG_VALUE: soft_mul:res <- $x16
	.loc	0 42 12                         # program.c:42:12
	slli	a2, a2, 1
.Ltmp55:
	#DEBUG_VALUE: soft_mul:ua <- $x12
	.loc	0 40 5                          # program.c:40:5
	bnez	a4, .LBB0_13
.Ltmp56:
.LBB0_14:                               #   in Loop: Header=BB0_2 Depth=1
	#DEBUG_VALUE: scaled_dx <- $x13
	#DEBUG_VALUE: r_cubed <- $x10
	#DEBUG_VALUE: abs_dy <- [DW_OP_plus_uconst 48] [$x2+0]
	#DEBUG_VALUE: abs_dx <- [DW_OP_plus_uconst 52] [$x2+0]
	#DEBUG_VALUE: dy <- [DW_OP_plus_uconst 56] [$x2+0]
	#DEBUG_VALUE: dx <- $x25
	#DEBUG_VALUE: _start:s2_vy <- $x27
	#DEBUG_VALUE: _start:s2_vx <- $x24
	#DEBUG_VALUE: _start:s2_y <- $x23
	#DEBUG_VALUE: _start:s2_x <- [DW_OP_plus_uconst 88] [$x2+0]
	#DEBUG_VALUE: _start:s1_vy <- $x8
	#DEBUG_VALUE: _start:s1_vx <- $x20
	#DEBUG_VALUE: _start:s1_y <- $x30
	#DEBUG_VALUE: _start:s1_x <- $x29
	#DEBUG_VALUE: _start:s0_vy <- $x9
	#DEBUG_VALUE: _start:s0_vx <- $x22
	#DEBUG_VALUE: _start:s0_y <- $x19
	#DEBUG_VALUE: _start:s0_x <- $x31
	#DEBUG_VALUE: _start:G_M2 <- 30000
	#DEBUG_VALUE: _start:G_M1 <- 30000
	#DEBUG_VALUE: _start:G_M0 <- 150000
	#DEBUG_VALUE: _start:max_y_bounds <- 118784
	#DEBUG_VALUE: _start:max_x_bounds <- 159744
	#DEBUG_VALUE: _start:ONE <- 256
	#DEBUG_VALUE: _start:FRACTION_BITS <- 8
	#DEBUG_VALUE: scaled_dy <- undef
	#DEBUG_VALUE: soft_div:num <- undef
	.loc	0 0 5 is_stmt 0                 # program.c:0:5
	srai	a2, a1, 31
	sw	t4, 64(sp)                      # 4-byte Folded Spill
.Ltmp57:
	#DEBUG_VALUE: _start:s1_x <- [DW_OP_plus_uconst 64] [$x2+0]
	#DEBUG_VALUE: soft_div:den <- $x10
	.loc	0 50 13 is_stmt 1               # program.c:50:13
	beqz	a0, .LBB0_19
.Ltmp58:
# %bb.15:                               #   in Loop: Header=BB0_2 Depth=1
	#DEBUG_VALUE: _start:s1_x <- [DW_OP_plus_uconst 64] [$x2+0]
	#DEBUG_VALUE: scaled_dx <- $x13
	#DEBUG_VALUE: r_cubed <- $x10
	#DEBUG_VALUE: abs_dy <- [DW_OP_plus_uconst 48] [$x2+0]
	#DEBUG_VALUE: abs_dx <- [DW_OP_plus_uconst 52] [$x2+0]
	#DEBUG_VALUE: dy <- [DW_OP_plus_uconst 56] [$x2+0]
	#DEBUG_VALUE: dx <- $x25
	#DEBUG_VALUE: _start:s2_vy <- $x27
	#DEBUG_VALUE: _start:s2_vx <- $x24
	#DEBUG_VALUE: _start:s2_y <- $x23
	#DEBUG_VALUE: _start:s2_x <- [DW_OP_plus_uconst 88] [$x2+0]
	#DEBUG_VALUE: _start:s1_vy <- $x8
	#DEBUG_VALUE: _start:s1_vx <- $x20
	#DEBUG_VALUE: _start:s1_y <- $x30
	#DEBUG_VALUE: _start:s0_vy <- $x9
	#DEBUG_VALUE: _start:s0_vx <- $x22
	#DEBUG_VALUE: _start:s0_y <- $x19
	#DEBUG_VALUE: _start:s0_x <- $x31
	#DEBUG_VALUE: _start:G_M2 <- 30000
	#DEBUG_VALUE: _start:G_M1 <- 30000
	#DEBUG_VALUE: _start:G_M0 <- 150000
	#DEBUG_VALUE: _start:max_y_bounds <- 118784
	#DEBUG_VALUE: _start:max_x_bounds <- 159744
	#DEBUG_VALUE: _start:ONE <- 256
	#DEBUG_VALUE: _start:FRACTION_BITS <- 8
	.loc	0 0 13 is_stmt 0                # program.c:0:13
	mv	a4, a6
.Ltmp59:
	.loc	0 45 12 is_stmt 1               # program.c:45:12
	bgez	a3, .LBB0_17
.Ltmp60:
# %bb.16:                               #   in Loop: Header=BB0_2 Depth=1
	#DEBUG_VALUE: _start:s1_x <- [DW_OP_plus_uconst 64] [$x2+0]
	#DEBUG_VALUE: scaled_dx <- $x13
	#DEBUG_VALUE: r_cubed <- $x10
	#DEBUG_VALUE: abs_dy <- [DW_OP_plus_uconst 48] [$x2+0]
	#DEBUG_VALUE: abs_dx <- [DW_OP_plus_uconst 52] [$x2+0]
	#DEBUG_VALUE: dy <- [DW_OP_plus_uconst 56] [$x2+0]
	#DEBUG_VALUE: dx <- $x25
	#DEBUG_VALUE: _start:s2_vy <- $x27
	#DEBUG_VALUE: _start:s2_vx <- $x24
	#DEBUG_VALUE: _start:s2_y <- $x23
	#DEBUG_VALUE: _start:s2_x <- [DW_OP_plus_uconst 88] [$x2+0]
	#DEBUG_VALUE: _start:s1_vy <- $x8
	#DEBUG_VALUE: _start:s1_vx <- $x20
	#DEBUG_VALUE: _start:s1_y <- $x30
	#DEBUG_VALUE: _start:s0_vy <- $x9
	#DEBUG_VALUE: _start:s0_vx <- $x22
	#DEBUG_VALUE: _start:s0_y <- $x19
	#DEBUG_VALUE: _start:s0_x <- $x31
	#DEBUG_VALUE: _start:G_M2 <- 30000
	#DEBUG_VALUE: _start:G_M1 <- 30000
	#DEBUG_VALUE: _start:G_M0 <- 150000
	#DEBUG_VALUE: _start:max_y_bounds <- 118784
	#DEBUG_VALUE: _start:max_x_bounds <- 159744
	#DEBUG_VALUE: _start:ONE <- 256
	#DEBUG_VALUE: _start:FRACTION_BITS <- 8
	.loc	0 0 12 is_stmt 0                # program.c:0:12
	neg	a4, a6
.Ltmp61:
.LBB0_17:                               #   in Loop: Header=BB0_2 Depth=1
	#DEBUG_VALUE: _start:s1_x <- [DW_OP_plus_uconst 64] [$x2+0]
	#DEBUG_VALUE: scaled_dx <- $x13
	#DEBUG_VALUE: r_cubed <- $x10
	#DEBUG_VALUE: abs_dy <- [DW_OP_plus_uconst 48] [$x2+0]
	#DEBUG_VALUE: abs_dx <- [DW_OP_plus_uconst 52] [$x2+0]
	#DEBUG_VALUE: dy <- [DW_OP_plus_uconst 56] [$x2+0]
	#DEBUG_VALUE: dx <- $x25
	#DEBUG_VALUE: _start:s2_vy <- $x27
	#DEBUG_VALUE: _start:s2_vx <- $x24
	#DEBUG_VALUE: _start:s2_y <- $x23
	#DEBUG_VALUE: _start:s2_x <- [DW_OP_plus_uconst 88] [$x2+0]
	#DEBUG_VALUE: _start:s1_vy <- $x8
	#DEBUG_VALUE: _start:s1_vx <- $x20
	#DEBUG_VALUE: _start:s1_y <- $x30
	#DEBUG_VALUE: _start:s0_vy <- $x9
	#DEBUG_VALUE: _start:s0_vx <- $x22
	#DEBUG_VALUE: _start:s0_y <- $x19
	#DEBUG_VALUE: _start:s0_x <- $x31
	#DEBUG_VALUE: _start:G_M2 <- 30000
	#DEBUG_VALUE: _start:G_M1 <- 30000
	#DEBUG_VALUE: _start:G_M0 <- 150000
	#DEBUG_VALUE: _start:max_y_bounds <- 118784
	#DEBUG_VALUE: _start:max_x_bounds <- 159744
	#DEBUG_VALUE: _start:ONE <- 256
	#DEBUG_VALUE: _start:FRACTION_BITS <- 8
	#DEBUG_VALUE: soft_div:num <- $x14
	#DEBUG_VALUE: soft_div:sign <- 1
	.loc	0 52 13 is_stmt 1               # program.c:52:13
	srai	a7, a6, 31
	xor	a6, a6, a7
	sub	a6, a6, a7
.Ltmp62:
	#DEBUG_VALUE: soft_div:num <- $x16
	#DEBUG_VALUE: soft_div:sign <- undef
	#DEBUG_VALUE: soft_div:n <- $x16
	.loc	0 53 13                         # program.c:53:13
	xor	a7, a1, a2
	sub	t0, a7, a2
.Ltmp63:
	#DEBUG_VALUE: soft_div:den <- $x5
	#DEBUG_VALUE: soft_div:d <- $x5
	#DEBUG_VALUE: soft_div:res <- 0
	#DEBUG_VALUE: soft_div:current <- 1
	.loc	0 60 5                          # program.c:60:5
	bgeu	a6, t0, .LBB0_20
.Ltmp64:
# %bb.18:                               #   in Loop: Header=BB0_2 Depth=1
	#DEBUG_VALUE: soft_div:current <- 1
	#DEBUG_VALUE: soft_div:res <- 0
	#DEBUG_VALUE: soft_div:d <- $x5
	#DEBUG_VALUE: soft_div:den <- $x5
	#DEBUG_VALUE: soft_div:n <- $x16
	#DEBUG_VALUE: soft_div:num <- $x16
	#DEBUG_VALUE: _start:s1_x <- [DW_OP_plus_uconst 64] [$x2+0]
	#DEBUG_VALUE: scaled_dx <- $x13
	#DEBUG_VALUE: r_cubed <- $x10
	#DEBUG_VALUE: abs_dy <- [DW_OP_plus_uconst 48] [$x2+0]
	#DEBUG_VALUE: abs_dx <- [DW_OP_plus_uconst 52] [$x2+0]
	#DEBUG_VALUE: dy <- [DW_OP_plus_uconst 56] [$x2+0]
	#DEBUG_VALUE: dx <- $x25
	#DEBUG_VALUE: _start:s2_vy <- $x27
	#DEBUG_VALUE: _start:s2_vx <- $x24
	#DEBUG_VALUE: _start:s2_y <- $x23
	#DEBUG_VALUE: _start:s2_x <- [DW_OP_plus_uconst 88] [$x2+0]
	#DEBUG_VALUE: _start:s1_vy <- $x8
	#DEBUG_VALUE: _start:s1_vx <- $x20
	#DEBUG_VALUE: _start:s1_y <- $x30
	#DEBUG_VALUE: _start:s0_vy <- $x9
	#DEBUG_VALUE: _start:s0_vx <- $x22
	#DEBUG_VALUE: _start:s0_y <- $x19
	#DEBUG_VALUE: _start:s0_x <- $x31
	#DEBUG_VALUE: _start:G_M2 <- 30000
	#DEBUG_VALUE: _start:G_M1 <- 30000
	#DEBUG_VALUE: _start:G_M0 <- 150000
	#DEBUG_VALUE: _start:max_y_bounds <- 118784
	#DEBUG_VALUE: _start:max_x_bounds <- 159744
	#DEBUG_VALUE: _start:ONE <- 256
	#DEBUG_VALUE: _start:FRACTION_BITS <- 8
	.loc	0 0 5 is_stmt 0                 # program.c:0:5
	li	a7, 1
	.loc	0 60 5                          # program.c:60:5
	j	.LBB0_22
.Ltmp65:
.LBB0_19:                               #   in Loop: Header=BB0_2 Depth=1
	#DEBUG_VALUE: soft_div:den <- $x10
	#DEBUG_VALUE: _start:s1_x <- [DW_OP_plus_uconst 64] [$x2+0]
	#DEBUG_VALUE: scaled_dx <- $x13
	#DEBUG_VALUE: r_cubed <- $x10
	#DEBUG_VALUE: abs_dy <- [DW_OP_plus_uconst 48] [$x2+0]
	#DEBUG_VALUE: abs_dx <- [DW_OP_plus_uconst 52] [$x2+0]
	#DEBUG_VALUE: dy <- [DW_OP_plus_uconst 56] [$x2+0]
	#DEBUG_VALUE: dx <- $x25
	#DEBUG_VALUE: _start:s2_vy <- $x27
	#DEBUG_VALUE: _start:s2_vx <- $x24
	#DEBUG_VALUE: _start:s2_y <- $x23
	#DEBUG_VALUE: _start:s2_x <- [DW_OP_plus_uconst 88] [$x2+0]
	#DEBUG_VALUE: _start:s1_vy <- $x8
	#DEBUG_VALUE: _start:s1_vx <- $x20
	#DEBUG_VALUE: _start:s1_y <- $x30
	#DEBUG_VALUE: _start:s0_vy <- $x9
	#DEBUG_VALUE: _start:s0_vx <- $x22
	#DEBUG_VALUE: _start:s0_y <- $x19
	#DEBUG_VALUE: _start:s0_x <- $x31
	#DEBUG_VALUE: _start:G_M2 <- 30000
	#DEBUG_VALUE: _start:G_M1 <- 30000
	#DEBUG_VALUE: _start:G_M0 <- 150000
	#DEBUG_VALUE: _start:max_y_bounds <- 118784
	#DEBUG_VALUE: _start:max_x_bounds <- 159744
	#DEBUG_VALUE: _start:ONE <- 256
	#DEBUG_VALUE: _start:FRACTION_BITS <- 8
	.loc	0 0 5                           # program.c:0:5
	li	s10, 0
.Ltmp66:
	.loc	0 50 13 is_stmt 1               # program.c:50:13
	j	.LBB0_27
.Ltmp67:
.LBB0_20:                               #   in Loop: Header=BB0_2 Depth=1
	#DEBUG_VALUE: soft_div:current <- 1
	#DEBUG_VALUE: soft_div:res <- 0
	#DEBUG_VALUE: soft_div:d <- $x5
	#DEBUG_VALUE: soft_div:den <- $x5
	#DEBUG_VALUE: soft_div:n <- $x16
	#DEBUG_VALUE: soft_div:num <- $x16
	#DEBUG_VALUE: _start:s1_x <- [DW_OP_plus_uconst 64] [$x2+0]
	#DEBUG_VALUE: scaled_dx <- $x13
	#DEBUG_VALUE: r_cubed <- $x10
	#DEBUG_VALUE: abs_dy <- [DW_OP_plus_uconst 48] [$x2+0]
	#DEBUG_VALUE: abs_dx <- [DW_OP_plus_uconst 52] [$x2+0]
	#DEBUG_VALUE: dy <- [DW_OP_plus_uconst 56] [$x2+0]
	#DEBUG_VALUE: dx <- $x25
	#DEBUG_VALUE: _start:s2_vy <- $x27
	#DEBUG_VALUE: _start:s2_vx <- $x24
	#DEBUG_VALUE: _start:s2_y <- $x23
	#DEBUG_VALUE: _start:s2_x <- [DW_OP_plus_uconst 88] [$x2+0]
	#DEBUG_VALUE: _start:s1_vy <- $x8
	#DEBUG_VALUE: _start:s1_vx <- $x20
	#DEBUG_VALUE: _start:s1_y <- $x30
	#DEBUG_VALUE: _start:s0_vy <- $x9
	#DEBUG_VALUE: _start:s0_vx <- $x22
	#DEBUG_VALUE: _start:s0_y <- $x19
	#DEBUG_VALUE: _start:s0_x <- $x31
	#DEBUG_VALUE: _start:G_M2 <- 30000
	#DEBUG_VALUE: _start:G_M1 <- 30000
	#DEBUG_VALUE: _start:G_M0 <- 150000
	#DEBUG_VALUE: _start:max_y_bounds <- 118784
	#DEBUG_VALUE: _start:max_x_bounds <- 159744
	#DEBUG_VALUE: _start:ONE <- 256
	#DEBUG_VALUE: _start:FRACTION_BITS <- 8
	.loc	0 0 13 is_stmt 0                # program.c:0:13
	li	a7, 1
.Ltmp68:
.LBB0_21:                               #   Parent Loop BB0_2 Depth=1
                                        # =>  This Inner Loop Header: Depth=2
	#DEBUG_VALUE: soft_div:res <- 0
	#DEBUG_VALUE: soft_div:d <- $x5
	#DEBUG_VALUE: soft_div:n <- $x16
	#DEBUG_VALUE: soft_div:num <- $x16
	#DEBUG_VALUE: _start:s1_x <- [DW_OP_plus_uconst 64] [$x2+0]
	#DEBUG_VALUE: scaled_dx <- $x13
	#DEBUG_VALUE: r_cubed <- $x10
	#DEBUG_VALUE: abs_dy <- [DW_OP_plus_uconst 48] [$x2+0]
	#DEBUG_VALUE: abs_dx <- [DW_OP_plus_uconst 52] [$x2+0]
	#DEBUG_VALUE: dy <- [DW_OP_plus_uconst 56] [$x2+0]
	#DEBUG_VALUE: dx <- $x25
	#DEBUG_VALUE: _start:s2_vy <- $x27
	#DEBUG_VALUE: _start:s2_vx <- $x24
	#DEBUG_VALUE: _start:s2_y <- $x23
	#DEBUG_VALUE: _start:s2_x <- [DW_OP_plus_uconst 88] [$x2+0]
	#DEBUG_VALUE: _start:s1_vy <- $x8
	#DEBUG_VALUE: _start:s1_vx <- $x20
	#DEBUG_VALUE: _start:s1_y <- $x30
	#DEBUG_VALUE: _start:s0_vy <- $x9
	#DEBUG_VALUE: _start:s0_vx <- $x22
	#DEBUG_VALUE: _start:s0_y <- $x19
	#DEBUG_VALUE: _start:s0_x <- $x31
	#DEBUG_VALUE: _start:G_M2 <- 30000
	#DEBUG_VALUE: _start:G_M1 <- 30000
	#DEBUG_VALUE: _start:G_M0 <- 150000
	#DEBUG_VALUE: _start:max_y_bounds <- 118784
	#DEBUG_VALUE: _start:max_x_bounds <- 159744
	#DEBUG_VALUE: _start:ONE <- 256
	#DEBUG_VALUE: _start:FRACTION_BITS <- 8
	#DEBUG_VALUE: soft_div:d <- $x5
	#DEBUG_VALUE: soft_div:current <- $x17
	.loc	0 61 11 is_stmt 1               # program.c:61:11
	slli	t0, t0, 1
.Ltmp69:
	#DEBUG_VALUE: soft_div:d <- $x5
	.loc	0 62 17                         # program.c:62:17
	slli	a7, a7, 1
.Ltmp70:
	#DEBUG_VALUE: soft_div:current <- $x17
	.loc	0 60 5                          # program.c:60:5
	bgeu	a6, t0, .LBB0_21
.Ltmp71:
.LBB0_22:                               #   in Loop: Header=BB0_2 Depth=1
	#DEBUG_VALUE: soft_div:res <- 0
	#DEBUG_VALUE: soft_div:d <- $x5
	#DEBUG_VALUE: soft_div:n <- $x16
	#DEBUG_VALUE: soft_div:num <- $x16
	#DEBUG_VALUE: _start:s1_x <- [DW_OP_plus_uconst 64] [$x2+0]
	#DEBUG_VALUE: scaled_dx <- $x13
	#DEBUG_VALUE: r_cubed <- $x10
	#DEBUG_VALUE: abs_dy <- [DW_OP_plus_uconst 48] [$x2+0]
	#DEBUG_VALUE: abs_dx <- [DW_OP_plus_uconst 52] [$x2+0]
	#DEBUG_VALUE: dy <- [DW_OP_plus_uconst 56] [$x2+0]
	#DEBUG_VALUE: dx <- $x25
	#DEBUG_VALUE: _start:s2_vy <- $x27
	#DEBUG_VALUE: _start:s2_vx <- $x24
	#DEBUG_VALUE: _start:s2_y <- $x23
	#DEBUG_VALUE: _start:s2_x <- [DW_OP_plus_uconst 88] [$x2+0]
	#DEBUG_VALUE: _start:s1_vy <- $x8
	#DEBUG_VALUE: _start:s1_vx <- $x20
	#DEBUG_VALUE: _start:s1_y <- $x30
	#DEBUG_VALUE: _start:s0_vy <- $x9
	#DEBUG_VALUE: _start:s0_vx <- $x22
	#DEBUG_VALUE: _start:s0_y <- $x19
	#DEBUG_VALUE: _start:s0_x <- $x31
	#DEBUG_VALUE: _start:G_M2 <- 30000
	#DEBUG_VALUE: _start:G_M1 <- 30000
	#DEBUG_VALUE: _start:G_M0 <- 150000
	#DEBUG_VALUE: _start:max_y_bounds <- 118784
	#DEBUG_VALUE: _start:max_x_bounds <- 159744
	#DEBUG_VALUE: _start:ONE <- 256
	#DEBUG_VALUE: _start:FRACTION_BITS <- 8
	.loc	0 0 5 is_stmt 0                 # program.c:0:5
	sltiu	t1, a7, 2
	xori	t1, t1, 1
.Ltmp72:
	#DEBUG_VALUE: soft_div:d <- [DW_OP_LLVM_arg 0, DW_OP_LLVM_arg 1, DW_OP_shr, DW_OP_stack_value] $x5, $x6
	li	s10, 0
.Ltmp73:
	.loc	0 64 15 is_stmt 1               # program.c:64:15
	srl	a7, a7, t1
.Ltmp74:
	#DEBUG_VALUE: soft_div:n <- $x16
	#DEBUG_VALUE: soft_div:res <- 0
	#DEBUG_VALUE: soft_div:current <- $x17
	.loc	0 69 5                          # program.c:69:5
	beqz	a7, .LBB0_25
.Ltmp75:
# %bb.23:                               #   in Loop: Header=BB0_2 Depth=1
	#DEBUG_VALUE: soft_div:d <- [DW_OP_LLVM_arg 0, DW_OP_LLVM_arg 1, DW_OP_shr, DW_OP_stack_value] $x5, $x6
	#DEBUG_VALUE: soft_div:current <- $x17
	#DEBUG_VALUE: soft_div:res <- 0
	#DEBUG_VALUE: soft_div:n <- $x16
	#DEBUG_VALUE: soft_div:num <- $x16
	#DEBUG_VALUE: _start:s1_x <- [DW_OP_plus_uconst 64] [$x2+0]
	#DEBUG_VALUE: scaled_dx <- $x13
	#DEBUG_VALUE: r_cubed <- $x10
	#DEBUG_VALUE: abs_dy <- [DW_OP_plus_uconst 48] [$x2+0]
	#DEBUG_VALUE: abs_dx <- [DW_OP_plus_uconst 52] [$x2+0]
	#DEBUG_VALUE: dy <- [DW_OP_plus_uconst 56] [$x2+0]
	#DEBUG_VALUE: dx <- $x25
	#DEBUG_VALUE: _start:s2_vy <- $x27
	#DEBUG_VALUE: _start:s2_vx <- $x24
	#DEBUG_VALUE: _start:s2_y <- $x23
	#DEBUG_VALUE: _start:s2_x <- [DW_OP_plus_uconst 88] [$x2+0]
	#DEBUG_VALUE: _start:s1_vy <- $x8
	#DEBUG_VALUE: _start:s1_vx <- $x20
	#DEBUG_VALUE: _start:s1_y <- $x30
	#DEBUG_VALUE: _start:s0_vy <- $x9
	#DEBUG_VALUE: _start:s0_vx <- $x22
	#DEBUG_VALUE: _start:s0_y <- $x19
	#DEBUG_VALUE: _start:s0_x <- $x31
	#DEBUG_VALUE: _start:G_M2 <- 30000
	#DEBUG_VALUE: _start:G_M1 <- 30000
	#DEBUG_VALUE: _start:G_M0 <- 150000
	#DEBUG_VALUE: _start:max_y_bounds <- 118784
	#DEBUG_VALUE: _start:max_x_bounds <- 159744
	#DEBUG_VALUE: _start:ONE <- 256
	#DEBUG_VALUE: _start:FRACTION_BITS <- 8
	.loc	0 64 15                         # program.c:64:15
	srl	t0, t0, t1
.Ltmp76:
	#DEBUG_VALUE: soft_div:d <- $x5
.LBB0_24:                               #   Parent Loop BB0_2 Depth=1
                                        # =>  This Inner Loop Header: Depth=2
	#DEBUG_VALUE: soft_div:current <- $x17
	#DEBUG_VALUE: soft_div:d <- $x5
	#DEBUG_VALUE: soft_div:n <- $x16
	#DEBUG_VALUE: _start:s1_x <- [DW_OP_plus_uconst 64] [$x2+0]
	#DEBUG_VALUE: scaled_dx <- $x13
	#DEBUG_VALUE: r_cubed <- $x10
	#DEBUG_VALUE: abs_dy <- [DW_OP_plus_uconst 48] [$x2+0]
	#DEBUG_VALUE: abs_dx <- [DW_OP_plus_uconst 52] [$x2+0]
	#DEBUG_VALUE: dy <- [DW_OP_plus_uconst 56] [$x2+0]
	#DEBUG_VALUE: dx <- $x25
	#DEBUG_VALUE: _start:s2_vy <- $x27
	#DEBUG_VALUE: _start:s2_vx <- $x24
	#DEBUG_VALUE: _start:s2_y <- $x23
	#DEBUG_VALUE: _start:s2_x <- [DW_OP_plus_uconst 88] [$x2+0]
	#DEBUG_VALUE: _start:s1_vy <- $x8
	#DEBUG_VALUE: _start:s1_vx <- $x20
	#DEBUG_VALUE: _start:s1_y <- $x30
	#DEBUG_VALUE: _start:s0_vy <- $x9
	#DEBUG_VALUE: _start:s0_vx <- $x22
	#DEBUG_VALUE: _start:s0_y <- $x19
	#DEBUG_VALUE: _start:s0_x <- $x31
	#DEBUG_VALUE: _start:G_M2 <- 30000
	#DEBUG_VALUE: _start:G_M1 <- 30000
	#DEBUG_VALUE: _start:G_M0 <- 150000
	#DEBUG_VALUE: _start:max_y_bounds <- 118784
	#DEBUG_VALUE: _start:max_x_bounds <- 159744
	#DEBUG_VALUE: _start:ONE <- 256
	#DEBUG_VALUE: _start:FRACTION_BITS <- 8
	#DEBUG_VALUE: soft_div:n <- $x16
	#DEBUG_VALUE: soft_div:d <- $x5
	#DEBUG_VALUE: soft_div:res <- $x26
	#DEBUG_VALUE: soft_div:current <- $x17
	.loc	0 70 15                         # program.c:70:15
	sltu	t1, a6, t0
	addi	t1, t1, -1
	and	t2, t1, t0
	and	t1, t1, a7
.Ltmp77:
	.loc	0 74 17                         # program.c:74:17
	srli	a7, a7, 1
.Ltmp78:
	#DEBUG_VALUE: soft_div:current <- $x17
	.loc	0 70 15                         # program.c:70:15
	sub	a6, a6, t2
.Ltmp79:
	or	s10, t1, s10
.Ltmp80:
	#DEBUG_VALUE: soft_div:res <- $x26
	#DEBUG_VALUE: soft_div:n <- $x16
	.loc	0 75 11                         # program.c:75:11
	srli	t0, t0, 1
.Ltmp81:
	#DEBUG_VALUE: soft_div:d <- $x5
	.loc	0 69 5                          # program.c:69:5
	bnez	a7, .LBB0_24
.Ltmp82:
.LBB0_25:                               #   in Loop: Header=BB0_2 Depth=1
	#DEBUG_VALUE: soft_div:current <- $x17
	#DEBUG_VALUE: soft_div:n <- $x16
	#DEBUG_VALUE: _start:s1_x <- [DW_OP_plus_uconst 64] [$x2+0]
	#DEBUG_VALUE: scaled_dx <- $x13
	#DEBUG_VALUE: r_cubed <- $x10
	#DEBUG_VALUE: abs_dy <- [DW_OP_plus_uconst 48] [$x2+0]
	#DEBUG_VALUE: abs_dx <- [DW_OP_plus_uconst 52] [$x2+0]
	#DEBUG_VALUE: dy <- [DW_OP_plus_uconst 56] [$x2+0]
	#DEBUG_VALUE: dx <- $x25
	#DEBUG_VALUE: _start:s2_vy <- $x27
	#DEBUG_VALUE: _start:s2_vx <- $x24
	#DEBUG_VALUE: _start:s2_y <- $x23
	#DEBUG_VALUE: _start:s2_x <- [DW_OP_plus_uconst 88] [$x2+0]
	#DEBUG_VALUE: _start:s1_vy <- $x8
	#DEBUG_VALUE: _start:s1_vx <- $x20
	#DEBUG_VALUE: _start:s1_y <- $x30
	#DEBUG_VALUE: _start:s0_vy <- $x9
	#DEBUG_VALUE: _start:s0_vx <- $x22
	#DEBUG_VALUE: _start:s0_y <- $x19
	#DEBUG_VALUE: _start:s0_x <- $x31
	#DEBUG_VALUE: _start:G_M2 <- 30000
	#DEBUG_VALUE: _start:G_M1 <- 30000
	#DEBUG_VALUE: _start:G_M0 <- 150000
	#DEBUG_VALUE: _start:max_y_bounds <- 118784
	#DEBUG_VALUE: _start:max_x_bounds <- 159744
	#DEBUG_VALUE: _start:ONE <- 256
	#DEBUG_VALUE: _start:FRACTION_BITS <- 8
	.loc	0 77 18                         # program.c:77:18
	xor	a4, a4, a0
	.loc	0 77 12 is_stmt 0               # program.c:77:12
	bgez	a4, .LBB0_27
.Ltmp83:
# %bb.26:                               #   in Loop: Header=BB0_2 Depth=1
	#DEBUG_VALUE: soft_div:current <- $x17
	#DEBUG_VALUE: soft_div:n <- $x16
	#DEBUG_VALUE: _start:s1_x <- [DW_OP_plus_uconst 64] [$x2+0]
	#DEBUG_VALUE: scaled_dx <- $x13
	#DEBUG_VALUE: r_cubed <- $x10
	#DEBUG_VALUE: abs_dy <- [DW_OP_plus_uconst 48] [$x2+0]
	#DEBUG_VALUE: abs_dx <- [DW_OP_plus_uconst 52] [$x2+0]
	#DEBUG_VALUE: dy <- [DW_OP_plus_uconst 56] [$x2+0]
	#DEBUG_VALUE: dx <- $x25
	#DEBUG_VALUE: _start:s2_vy <- $x27
	#DEBUG_VALUE: _start:s2_vx <- $x24
	#DEBUG_VALUE: _start:s2_y <- $x23
	#DEBUG_VALUE: _start:s2_x <- [DW_OP_plus_uconst 88] [$x2+0]
	#DEBUG_VALUE: _start:s1_vy <- $x8
	#DEBUG_VALUE: _start:s1_vx <- $x20
	#DEBUG_VALUE: _start:s1_y <- $x30
	#DEBUG_VALUE: _start:s0_vy <- $x9
	#DEBUG_VALUE: _start:s0_vx <- $x22
	#DEBUG_VALUE: _start:s0_y <- $x19
	#DEBUG_VALUE: _start:s0_x <- $x31
	#DEBUG_VALUE: _start:G_M2 <- 30000
	#DEBUG_VALUE: _start:G_M1 <- 30000
	#DEBUG_VALUE: _start:G_M0 <- 150000
	#DEBUG_VALUE: _start:max_y_bounds <- 118784
	#DEBUG_VALUE: _start:max_x_bounds <- 159744
	#DEBUG_VALUE: _start:ONE <- 256
	#DEBUG_VALUE: _start:FRACTION_BITS <- 8
	neg	s10, s10
.Ltmp84:
.LBB0_27:                               #   in Loop: Header=BB0_2 Depth=1
	#DEBUG_VALUE: _start:s1_x <- [DW_OP_plus_uconst 64] [$x2+0]
	#DEBUG_VALUE: scaled_dx <- $x13
	#DEBUG_VALUE: r_cubed <- $x10
	#DEBUG_VALUE: abs_dy <- [DW_OP_plus_uconst 48] [$x2+0]
	#DEBUG_VALUE: abs_dx <- [DW_OP_plus_uconst 52] [$x2+0]
	#DEBUG_VALUE: dy <- [DW_OP_plus_uconst 56] [$x2+0]
	#DEBUG_VALUE: dx <- $x25
	#DEBUG_VALUE: _start:s2_vy <- $x27
	#DEBUG_VALUE: _start:s2_vx <- $x24
	#DEBUG_VALUE: _start:s2_y <- $x23
	#DEBUG_VALUE: _start:s2_x <- [DW_OP_plus_uconst 88] [$x2+0]
	#DEBUG_VALUE: _start:s1_vy <- $x8
	#DEBUG_VALUE: _start:s1_vx <- $x20
	#DEBUG_VALUE: _start:s1_y <- $x30
	#DEBUG_VALUE: _start:s0_vy <- $x9
	#DEBUG_VALUE: _start:s0_vx <- $x22
	#DEBUG_VALUE: _start:s0_y <- $x19
	#DEBUG_VALUE: _start:s0_x <- $x31
	#DEBUG_VALUE: _start:G_M2 <- 30000
	#DEBUG_VALUE: _start:G_M1 <- 30000
	#DEBUG_VALUE: _start:G_M0 <- 150000
	#DEBUG_VALUE: _start:max_y_bounds <- 118784
	#DEBUG_VALUE: _start:max_x_bounds <- 159744
	#DEBUG_VALUE: _start:ONE <- 256
	#DEBUG_VALUE: _start:FRACTION_BITS <- 8
	.loc	0 0 12                          # program.c:0:12
	lw	t0, 56(sp)                      # 4-byte Folded Reload
	srai	a4, t0, 8
.Ltmp85:
	#DEBUG_VALUE: _start:s0_vx <- undef
	#DEBUG_VALUE: scaled_dy <- $x14
	#DEBUG_VALUE: soft_mul:b <- $x14
	#DEBUG_VALUE: soft_mul:res <- 0
	#DEBUG_VALUE: soft_mul:sign <- 1
	#DEBUG_VALUE: soft_mul:a <- 30000
	.loc	0 38 11 is_stmt 1               # program.c:38:11
	srai	a6, a4, 31
	xor	a7, a4, a6
	sub	a6, a7, a6
.Ltmp86:
	#DEBUG_VALUE: soft_mul:b <- $x16
	#DEBUG_VALUE: soft_mul:sign <- undef
	#DEBUG_VALUE: soft_mul:ub <- $x16
	#DEBUG_VALUE: soft_mul:ua <- 30000
	.loc	0 40 5                          # program.c:40:5
	bgeu	t0, s2, .LBB0_29
.Ltmp87:
# %bb.28:                               #   in Loop: Header=BB0_2 Depth=1
	#DEBUG_VALUE: soft_mul:ua <- 30000
	#DEBUG_VALUE: soft_mul:ub <- $x16
	#DEBUG_VALUE: soft_mul:b <- $x16
	#DEBUG_VALUE: soft_mul:a <- 30000
	#DEBUG_VALUE: soft_mul:res <- 0
	#DEBUG_VALUE: scaled_dy <- $x14
	#DEBUG_VALUE: _start:s1_x <- [DW_OP_plus_uconst 64] [$x2+0]
	#DEBUG_VALUE: scaled_dx <- $x13
	#DEBUG_VALUE: r_cubed <- $x10
	#DEBUG_VALUE: abs_dy <- [DW_OP_plus_uconst 48] [$x2+0]
	#DEBUG_VALUE: abs_dx <- [DW_OP_plus_uconst 52] [$x2+0]
	#DEBUG_VALUE: dy <- [DW_OP_plus_uconst 56] [$x2+0]
	#DEBUG_VALUE: dx <- $x25
	#DEBUG_VALUE: _start:s2_vy <- $x27
	#DEBUG_VALUE: _start:s2_vx <- $x24
	#DEBUG_VALUE: _start:s2_y <- $x23
	#DEBUG_VALUE: _start:s2_x <- [DW_OP_plus_uconst 88] [$x2+0]
	#DEBUG_VALUE: _start:s1_vy <- $x8
	#DEBUG_VALUE: _start:s1_vx <- $x20
	#DEBUG_VALUE: _start:s1_y <- $x30
	#DEBUG_VALUE: _start:s0_vy <- $x9
	#DEBUG_VALUE: _start:s0_y <- $x19
	#DEBUG_VALUE: _start:s0_x <- $x31
	#DEBUG_VALUE: _start:G_M2 <- 30000
	#DEBUG_VALUE: _start:G_M1 <- 30000
	#DEBUG_VALUE: _start:G_M0 <- 150000
	#DEBUG_VALUE: _start:max_y_bounds <- 118784
	#DEBUG_VALUE: _start:max_x_bounds <- 159744
	#DEBUG_VALUE: _start:ONE <- 256
	#DEBUG_VALUE: _start:FRACTION_BITS <- 8
	.loc	0 0 5 is_stmt 0                 # program.c:0:5
	li	t0, 0
	.loc	0 40 5                          # program.c:40:5
	j	.LBB0_31
.Ltmp88:
.LBB0_29:                               #   in Loop: Header=BB0_2 Depth=1
	#DEBUG_VALUE: soft_mul:ua <- 30000
	#DEBUG_VALUE: soft_mul:ub <- $x16
	#DEBUG_VALUE: soft_mul:b <- $x16
	#DEBUG_VALUE: soft_mul:a <- 30000
	#DEBUG_VALUE: soft_mul:res <- 0
	#DEBUG_VALUE: scaled_dy <- $x14
	#DEBUG_VALUE: _start:s1_x <- [DW_OP_plus_uconst 64] [$x2+0]
	#DEBUG_VALUE: scaled_dx <- $x13
	#DEBUG_VALUE: r_cubed <- $x10
	#DEBUG_VALUE: abs_dy <- [DW_OP_plus_uconst 48] [$x2+0]
	#DEBUG_VALUE: abs_dx <- [DW_OP_plus_uconst 52] [$x2+0]
	#DEBUG_VALUE: dy <- [DW_OP_plus_uconst 56] [$x2+0]
	#DEBUG_VALUE: dx <- $x25
	#DEBUG_VALUE: _start:s2_vy <- $x27
	#DEBUG_VALUE: _start:s2_vx <- $x24
	#DEBUG_VALUE: _start:s2_y <- $x23
	#DEBUG_VALUE: _start:s2_x <- [DW_OP_plus_uconst 88] [$x2+0]
	#DEBUG_VALUE: _start:s1_vy <- $x8
	#DEBUG_VALUE: _start:s1_vx <- $x20
	#DEBUG_VALUE: _start:s1_y <- $x30
	#DEBUG_VALUE: _start:s0_vy <- $x9
	#DEBUG_VALUE: _start:s0_y <- $x19
	#DEBUG_VALUE: _start:s0_x <- $x31
	#DEBUG_VALUE: _start:G_M2 <- 30000
	#DEBUG_VALUE: _start:G_M1 <- 30000
	#DEBUG_VALUE: _start:G_M0 <- 150000
	#DEBUG_VALUE: _start:max_y_bounds <- 118784
	#DEBUG_VALUE: _start:max_x_bounds <- 159744
	#DEBUG_VALUE: _start:ONE <- 256
	#DEBUG_VALUE: _start:FRACTION_BITS <- 8
	.loc	0 0 5                           # program.c:0:5
	li	t0, 0
	addi	a7, ra, 1328
	mv	t1, a6
.Ltmp89:
.LBB0_30:                               #   Parent Loop BB0_2 Depth=1
                                        # =>  This Inner Loop Header: Depth=2
	#DEBUG_VALUE: soft_mul:b <- $x16
	#DEBUG_VALUE: soft_mul:a <- 30000
	#DEBUG_VALUE: scaled_dy <- $x14
	#DEBUG_VALUE: _start:s1_x <- [DW_OP_plus_uconst 64] [$x2+0]
	#DEBUG_VALUE: scaled_dx <- $x13
	#DEBUG_VALUE: r_cubed <- $x10
	#DEBUG_VALUE: abs_dy <- [DW_OP_plus_uconst 48] [$x2+0]
	#DEBUG_VALUE: abs_dx <- [DW_OP_plus_uconst 52] [$x2+0]
	#DEBUG_VALUE: dy <- [DW_OP_plus_uconst 56] [$x2+0]
	#DEBUG_VALUE: dx <- $x25
	#DEBUG_VALUE: _start:s2_vy <- $x27
	#DEBUG_VALUE: _start:s2_vx <- $x24
	#DEBUG_VALUE: _start:s2_y <- $x23
	#DEBUG_VALUE: _start:s2_x <- [DW_OP_plus_uconst 88] [$x2+0]
	#DEBUG_VALUE: _start:s1_vy <- $x8
	#DEBUG_VALUE: _start:s1_vx <- $x20
	#DEBUG_VALUE: _start:s1_y <- $x30
	#DEBUG_VALUE: _start:s0_vy <- $x9
	#DEBUG_VALUE: _start:s0_y <- $x19
	#DEBUG_VALUE: _start:s0_x <- $x31
	#DEBUG_VALUE: _start:G_M2 <- 30000
	#DEBUG_VALUE: _start:G_M1 <- 30000
	#DEBUG_VALUE: _start:G_M0 <- 150000
	#DEBUG_VALUE: _start:max_y_bounds <- 118784
	#DEBUG_VALUE: _start:max_x_bounds <- 159744
	#DEBUG_VALUE: _start:ONE <- 256
	#DEBUG_VALUE: _start:FRACTION_BITS <- 8
	#DEBUG_VALUE: soft_mul:res <- $x5
	#DEBUG_VALUE: soft_mul:ub <- $x6
	#DEBUG_VALUE: soft_mul:ua <- $x17
	.loc	0 41 16 is_stmt 1               # program.c:41:16
	slli	t2, t1, 31
.Ltmp90:
	.loc	0 43 12                         # program.c:43:12
	srli	t1, t1, 1
.Ltmp91:
	#DEBUG_VALUE: soft_mul:ub <- $x6
	.loc	0 41 16                         # program.c:41:16
	srai	t2, t2, 31
	and	t2, t2, a7
	add	t0, t2, t0
.Ltmp92:
	#DEBUG_VALUE: soft_mul:res <- $x5
	.loc	0 42 12                         # program.c:42:12
	slli	a7, a7, 1
.Ltmp93:
	#DEBUG_VALUE: soft_mul:ua <- $x17
	.loc	0 40 5                          # program.c:40:5
	bnez	t1, .LBB0_30
.Ltmp94:
.LBB0_31:                               #   in Loop: Header=BB0_2 Depth=1
	#DEBUG_VALUE: scaled_dy <- $x14
	#DEBUG_VALUE: _start:s1_x <- [DW_OP_plus_uconst 64] [$x2+0]
	#DEBUG_VALUE: scaled_dx <- $x13
	#DEBUG_VALUE: r_cubed <- $x10
	#DEBUG_VALUE: abs_dy <- [DW_OP_plus_uconst 48] [$x2+0]
	#DEBUG_VALUE: abs_dx <- [DW_OP_plus_uconst 52] [$x2+0]
	#DEBUG_VALUE: dy <- [DW_OP_plus_uconst 56] [$x2+0]
	#DEBUG_VALUE: dx <- $x25
	#DEBUG_VALUE: _start:s2_vy <- $x27
	#DEBUG_VALUE: _start:s2_vx <- $x24
	#DEBUG_VALUE: _start:s2_y <- $x23
	#DEBUG_VALUE: _start:s2_x <- [DW_OP_plus_uconst 88] [$x2+0]
	#DEBUG_VALUE: _start:s1_vy <- $x8
	#DEBUG_VALUE: _start:s1_vx <- $x20
	#DEBUG_VALUE: _start:s1_y <- $x30
	#DEBUG_VALUE: _start:s0_vy <- $x9
	#DEBUG_VALUE: _start:s0_y <- $x19
	#DEBUG_VALUE: _start:s0_x <- $x31
	#DEBUG_VALUE: _start:G_M2 <- 30000
	#DEBUG_VALUE: _start:G_M1 <- 30000
	#DEBUG_VALUE: _start:G_M0 <- 150000
	#DEBUG_VALUE: _start:max_y_bounds <- 118784
	#DEBUG_VALUE: _start:max_x_bounds <- 159744
	#DEBUG_VALUE: _start:ONE <- 256
	#DEBUG_VALUE: _start:FRACTION_BITS <- 8
	#DEBUG_VALUE: _start:s0_vx <- undef
	#DEBUG_VALUE: soft_div:num <- undef
	#DEBUG_VALUE: soft_div:den <- $x10
	.loc	0 50 13                         # program.c:50:13
	beqz	a0, .LBB0_36
.Ltmp95:
# %bb.32:                               #   in Loop: Header=BB0_2 Depth=1
	#DEBUG_VALUE: scaled_dy <- $x14
	#DEBUG_VALUE: _start:s1_x <- [DW_OP_plus_uconst 64] [$x2+0]
	#DEBUG_VALUE: scaled_dx <- $x13
	#DEBUG_VALUE: r_cubed <- $x10
	#DEBUG_VALUE: abs_dy <- [DW_OP_plus_uconst 48] [$x2+0]
	#DEBUG_VALUE: abs_dx <- [DW_OP_plus_uconst 52] [$x2+0]
	#DEBUG_VALUE: dy <- [DW_OP_plus_uconst 56] [$x2+0]
	#DEBUG_VALUE: dx <- $x25
	#DEBUG_VALUE: _start:s2_vy <- $x27
	#DEBUG_VALUE: _start:s2_vx <- $x24
	#DEBUG_VALUE: _start:s2_y <- $x23
	#DEBUG_VALUE: _start:s2_x <- [DW_OP_plus_uconst 88] [$x2+0]
	#DEBUG_VALUE: _start:s1_vy <- $x8
	#DEBUG_VALUE: _start:s1_vx <- $x20
	#DEBUG_VALUE: _start:s1_y <- $x30
	#DEBUG_VALUE: _start:s0_vy <- $x9
	#DEBUG_VALUE: _start:s0_y <- $x19
	#DEBUG_VALUE: _start:s0_x <- $x31
	#DEBUG_VALUE: _start:G_M2 <- 30000
	#DEBUG_VALUE: _start:G_M1 <- 30000
	#DEBUG_VALUE: _start:G_M0 <- 150000
	#DEBUG_VALUE: _start:max_y_bounds <- 118784
	#DEBUG_VALUE: _start:max_x_bounds <- 159744
	#DEBUG_VALUE: _start:ONE <- 256
	#DEBUG_VALUE: _start:FRACTION_BITS <- 8
	.loc	0 0 13 is_stmt 0                # program.c:0:13
	mv	a7, t0
.Ltmp96:
	.loc	0 45 12 is_stmt 1               # program.c:45:12
	bgez	a4, .LBB0_34
.Ltmp97:
# %bb.33:                               #   in Loop: Header=BB0_2 Depth=1
	#DEBUG_VALUE: scaled_dy <- $x14
	#DEBUG_VALUE: _start:s1_x <- [DW_OP_plus_uconst 64] [$x2+0]
	#DEBUG_VALUE: scaled_dx <- $x13
	#DEBUG_VALUE: r_cubed <- $x10
	#DEBUG_VALUE: abs_dy <- [DW_OP_plus_uconst 48] [$x2+0]
	#DEBUG_VALUE: abs_dx <- [DW_OP_plus_uconst 52] [$x2+0]
	#DEBUG_VALUE: dy <- [DW_OP_plus_uconst 56] [$x2+0]
	#DEBUG_VALUE: dx <- $x25
	#DEBUG_VALUE: _start:s2_vy <- $x27
	#DEBUG_VALUE: _start:s2_vx <- $x24
	#DEBUG_VALUE: _start:s2_y <- $x23
	#DEBUG_VALUE: _start:s2_x <- [DW_OP_plus_uconst 88] [$x2+0]
	#DEBUG_VALUE: _start:s1_vy <- $x8
	#DEBUG_VALUE: _start:s1_vx <- $x20
	#DEBUG_VALUE: _start:s1_y <- $x30
	#DEBUG_VALUE: _start:s0_vy <- $x9
	#DEBUG_VALUE: _start:s0_y <- $x19
	#DEBUG_VALUE: _start:s0_x <- $x31
	#DEBUG_VALUE: _start:G_M2 <- 30000
	#DEBUG_VALUE: _start:G_M1 <- 30000
	#DEBUG_VALUE: _start:G_M0 <- 150000
	#DEBUG_VALUE: _start:max_y_bounds <- 118784
	#DEBUG_VALUE: _start:max_x_bounds <- 159744
	#DEBUG_VALUE: _start:ONE <- 256
	#DEBUG_VALUE: _start:FRACTION_BITS <- 8
	.loc	0 0 12 is_stmt 0                # program.c:0:12
	neg	a7, t0
.Ltmp98:
.LBB0_34:                               #   in Loop: Header=BB0_2 Depth=1
	#DEBUG_VALUE: scaled_dy <- $x14
	#DEBUG_VALUE: _start:s1_x <- [DW_OP_plus_uconst 64] [$x2+0]
	#DEBUG_VALUE: scaled_dx <- $x13
	#DEBUG_VALUE: r_cubed <- $x10
	#DEBUG_VALUE: abs_dy <- [DW_OP_plus_uconst 48] [$x2+0]
	#DEBUG_VALUE: abs_dx <- [DW_OP_plus_uconst 52] [$x2+0]
	#DEBUG_VALUE: dy <- [DW_OP_plus_uconst 56] [$x2+0]
	#DEBUG_VALUE: dx <- $x25
	#DEBUG_VALUE: _start:s2_vy <- $x27
	#DEBUG_VALUE: _start:s2_vx <- $x24
	#DEBUG_VALUE: _start:s2_y <- $x23
	#DEBUG_VALUE: _start:s2_x <- [DW_OP_plus_uconst 88] [$x2+0]
	#DEBUG_VALUE: _start:s1_vy <- $x8
	#DEBUG_VALUE: _start:s1_vx <- $x20
	#DEBUG_VALUE: _start:s1_y <- $x30
	#DEBUG_VALUE: _start:s0_vy <- $x9
	#DEBUG_VALUE: _start:s0_y <- $x19
	#DEBUG_VALUE: _start:s0_x <- $x31
	#DEBUG_VALUE: _start:G_M2 <- 30000
	#DEBUG_VALUE: _start:G_M1 <- 30000
	#DEBUG_VALUE: _start:G_M0 <- 150000
	#DEBUG_VALUE: _start:max_y_bounds <- 118784
	#DEBUG_VALUE: _start:max_x_bounds <- 159744
	#DEBUG_VALUE: _start:ONE <- 256
	#DEBUG_VALUE: _start:FRACTION_BITS <- 8
	#DEBUG_VALUE: soft_div:num <- $x17
	#DEBUG_VALUE: soft_div:sign <- 1
	.loc	0 52 13 is_stmt 1               # program.c:52:13
	srai	t1, t0, 31
	xor	t0, t0, t1
	sub	t0, t0, t1
.Ltmp99:
	#DEBUG_VALUE: soft_div:num <- $x5
	#DEBUG_VALUE: soft_div:sign <- undef
	#DEBUG_VALUE: soft_div:n <- $x5
	.loc	0 53 13                         # program.c:53:13
	xor	t1, a1, a2
	sub	t2, t1, a2
.Ltmp100:
	#DEBUG_VALUE: soft_div:den <- $x7
	#DEBUG_VALUE: soft_div:d <- $x7
	#DEBUG_VALUE: soft_div:res <- 0
	#DEBUG_VALUE: soft_div:current <- 1
	.loc	0 60 5                          # program.c:60:5
	bgeu	t0, t2, .LBB0_37
.Ltmp101:
# %bb.35:                               #   in Loop: Header=BB0_2 Depth=1
	#DEBUG_VALUE: soft_div:current <- 1
	#DEBUG_VALUE: soft_div:res <- 0
	#DEBUG_VALUE: soft_div:d <- $x7
	#DEBUG_VALUE: soft_div:den <- $x7
	#DEBUG_VALUE: soft_div:n <- $x5
	#DEBUG_VALUE: soft_div:num <- $x5
	#DEBUG_VALUE: scaled_dy <- $x14
	#DEBUG_VALUE: _start:s1_x <- [DW_OP_plus_uconst 64] [$x2+0]
	#DEBUG_VALUE: scaled_dx <- $x13
	#DEBUG_VALUE: r_cubed <- $x10
	#DEBUG_VALUE: abs_dy <- [DW_OP_plus_uconst 48] [$x2+0]
	#DEBUG_VALUE: abs_dx <- [DW_OP_plus_uconst 52] [$x2+0]
	#DEBUG_VALUE: dy <- [DW_OP_plus_uconst 56] [$x2+0]
	#DEBUG_VALUE: dx <- $x25
	#DEBUG_VALUE: _start:s2_vy <- $x27
	#DEBUG_VALUE: _start:s2_vx <- $x24
	#DEBUG_VALUE: _start:s2_y <- $x23
	#DEBUG_VALUE: _start:s2_x <- [DW_OP_plus_uconst 88] [$x2+0]
	#DEBUG_VALUE: _start:s1_vy <- $x8
	#DEBUG_VALUE: _start:s1_vx <- $x20
	#DEBUG_VALUE: _start:s1_y <- $x30
	#DEBUG_VALUE: _start:s0_vy <- $x9
	#DEBUG_VALUE: _start:s0_y <- $x19
	#DEBUG_VALUE: _start:s0_x <- $x31
	#DEBUG_VALUE: _start:G_M2 <- 30000
	#DEBUG_VALUE: _start:G_M1 <- 30000
	#DEBUG_VALUE: _start:G_M0 <- 150000
	#DEBUG_VALUE: _start:max_y_bounds <- 118784
	#DEBUG_VALUE: _start:max_x_bounds <- 159744
	#DEBUG_VALUE: _start:ONE <- 256
	#DEBUG_VALUE: _start:FRACTION_BITS <- 8
	.loc	0 0 5 is_stmt 0                 # program.c:0:5
	li	t1, 1
	.loc	0 60 5                          # program.c:60:5
	j	.LBB0_39
.Ltmp102:
.LBB0_36:                               #   in Loop: Header=BB0_2 Depth=1
	#DEBUG_VALUE: soft_div:den <- $x10
	#DEBUG_VALUE: scaled_dy <- $x14
	#DEBUG_VALUE: _start:s1_x <- [DW_OP_plus_uconst 64] [$x2+0]
	#DEBUG_VALUE: scaled_dx <- $x13
	#DEBUG_VALUE: r_cubed <- $x10
	#DEBUG_VALUE: abs_dy <- [DW_OP_plus_uconst 48] [$x2+0]
	#DEBUG_VALUE: abs_dx <- [DW_OP_plus_uconst 52] [$x2+0]
	#DEBUG_VALUE: dy <- [DW_OP_plus_uconst 56] [$x2+0]
	#DEBUG_VALUE: dx <- $x25
	#DEBUG_VALUE: _start:s2_vy <- $x27
	#DEBUG_VALUE: _start:s2_vx <- $x24
	#DEBUG_VALUE: _start:s2_y <- $x23
	#DEBUG_VALUE: _start:s2_x <- [DW_OP_plus_uconst 88] [$x2+0]
	#DEBUG_VALUE: _start:s1_vy <- $x8
	#DEBUG_VALUE: _start:s1_vx <- $x20
	#DEBUG_VALUE: _start:s1_y <- $x30
	#DEBUG_VALUE: _start:s0_vy <- $x9
	#DEBUG_VALUE: _start:s0_y <- $x19
	#DEBUG_VALUE: _start:s0_x <- $x31
	#DEBUG_VALUE: _start:G_M2 <- 30000
	#DEBUG_VALUE: _start:G_M1 <- 30000
	#DEBUG_VALUE: _start:G_M0 <- 150000
	#DEBUG_VALUE: _start:max_y_bounds <- 118784
	#DEBUG_VALUE: _start:max_x_bounds <- 159744
	#DEBUG_VALUE: _start:ONE <- 256
	#DEBUG_VALUE: _start:FRACTION_BITS <- 8
	.loc	0 0 5                           # program.c:0:5
	li	s5, 0
.Ltmp103:
	.loc	0 50 13 is_stmt 1               # program.c:50:13
	j	.LBB0_44
.Ltmp104:
.LBB0_37:                               #   in Loop: Header=BB0_2 Depth=1
	#DEBUG_VALUE: soft_div:current <- 1
	#DEBUG_VALUE: soft_div:res <- 0
	#DEBUG_VALUE: soft_div:d <- $x7
	#DEBUG_VALUE: soft_div:den <- $x7
	#DEBUG_VALUE: soft_div:n <- $x5
	#DEBUG_VALUE: soft_div:num <- $x5
	#DEBUG_VALUE: scaled_dy <- $x14
	#DEBUG_VALUE: _start:s1_x <- [DW_OP_plus_uconst 64] [$x2+0]
	#DEBUG_VALUE: scaled_dx <- $x13
	#DEBUG_VALUE: r_cubed <- $x10
	#DEBUG_VALUE: abs_dy <- [DW_OP_plus_uconst 48] [$x2+0]
	#DEBUG_VALUE: abs_dx <- [DW_OP_plus_uconst 52] [$x2+0]
	#DEBUG_VALUE: dy <- [DW_OP_plus_uconst 56] [$x2+0]
	#DEBUG_VALUE: dx <- $x25
	#DEBUG_VALUE: _start:s2_vy <- $x27
	#DEBUG_VALUE: _start:s2_vx <- $x24
	#DEBUG_VALUE: _start:s2_y <- $x23
	#DEBUG_VALUE: _start:s2_x <- [DW_OP_plus_uconst 88] [$x2+0]
	#DEBUG_VALUE: _start:s1_vy <- $x8
	#DEBUG_VALUE: _start:s1_vx <- $x20
	#DEBUG_VALUE: _start:s1_y <- $x30
	#DEBUG_VALUE: _start:s0_vy <- $x9
	#DEBUG_VALUE: _start:s0_y <- $x19
	#DEBUG_VALUE: _start:s0_x <- $x31
	#DEBUG_VALUE: _start:G_M2 <- 30000
	#DEBUG_VALUE: _start:G_M1 <- 30000
	#DEBUG_VALUE: _start:G_M0 <- 150000
	#DEBUG_VALUE: _start:max_y_bounds <- 118784
	#DEBUG_VALUE: _start:max_x_bounds <- 159744
	#DEBUG_VALUE: _start:ONE <- 256
	#DEBUG_VALUE: _start:FRACTION_BITS <- 8
	.loc	0 0 13 is_stmt 0                # program.c:0:13
	li	t1, 1
.Ltmp105:
.LBB0_38:                               #   Parent Loop BB0_2 Depth=1
                                        # =>  This Inner Loop Header: Depth=2
	#DEBUG_VALUE: soft_div:res <- 0
	#DEBUG_VALUE: soft_div:d <- $x7
	#DEBUG_VALUE: soft_div:n <- $x5
	#DEBUG_VALUE: soft_div:num <- $x5
	#DEBUG_VALUE: scaled_dy <- $x14
	#DEBUG_VALUE: _start:s1_x <- [DW_OP_plus_uconst 64] [$x2+0]
	#DEBUG_VALUE: scaled_dx <- $x13
	#DEBUG_VALUE: r_cubed <- $x10
	#DEBUG_VALUE: abs_dy <- [DW_OP_plus_uconst 48] [$x2+0]
	#DEBUG_VALUE: abs_dx <- [DW_OP_plus_uconst 52] [$x2+0]
	#DEBUG_VALUE: dy <- [DW_OP_plus_uconst 56] [$x2+0]
	#DEBUG_VALUE: dx <- $x25
	#DEBUG_VALUE: _start:s2_vy <- $x27
	#DEBUG_VALUE: _start:s2_vx <- $x24
	#DEBUG_VALUE: _start:s2_y <- $x23
	#DEBUG_VALUE: _start:s2_x <- [DW_OP_plus_uconst 88] [$x2+0]
	#DEBUG_VALUE: _start:s1_vy <- $x8
	#DEBUG_VALUE: _start:s1_vx <- $x20
	#DEBUG_VALUE: _start:s1_y <- $x30
	#DEBUG_VALUE: _start:s0_vy <- $x9
	#DEBUG_VALUE: _start:s0_y <- $x19
	#DEBUG_VALUE: _start:s0_x <- $x31
	#DEBUG_VALUE: _start:G_M2 <- 30000
	#DEBUG_VALUE: _start:G_M1 <- 30000
	#DEBUG_VALUE: _start:G_M0 <- 150000
	#DEBUG_VALUE: _start:max_y_bounds <- 118784
	#DEBUG_VALUE: _start:max_x_bounds <- 159744
	#DEBUG_VALUE: _start:ONE <- 256
	#DEBUG_VALUE: _start:FRACTION_BITS <- 8
	#DEBUG_VALUE: soft_div:d <- $x7
	#DEBUG_VALUE: soft_div:current <- $x6
	.loc	0 61 11 is_stmt 1               # program.c:61:11
	slli	t2, t2, 1
.Ltmp106:
	#DEBUG_VALUE: soft_div:d <- $x7
	.loc	0 62 17                         # program.c:62:17
	slli	t1, t1, 1
.Ltmp107:
	#DEBUG_VALUE: soft_div:current <- $x6
	.loc	0 60 5                          # program.c:60:5
	bgeu	t0, t2, .LBB0_38
.Ltmp108:
.LBB0_39:                               #   in Loop: Header=BB0_2 Depth=1
	#DEBUG_VALUE: soft_div:res <- 0
	#DEBUG_VALUE: soft_div:d <- $x7
	#DEBUG_VALUE: soft_div:n <- $x5
	#DEBUG_VALUE: soft_div:num <- $x5
	#DEBUG_VALUE: scaled_dy <- $x14
	#DEBUG_VALUE: _start:s1_x <- [DW_OP_plus_uconst 64] [$x2+0]
	#DEBUG_VALUE: scaled_dx <- $x13
	#DEBUG_VALUE: r_cubed <- $x10
	#DEBUG_VALUE: abs_dy <- [DW_OP_plus_uconst 48] [$x2+0]
	#DEBUG_VALUE: abs_dx <- [DW_OP_plus_uconst 52] [$x2+0]
	#DEBUG_VALUE: dy <- [DW_OP_plus_uconst 56] [$x2+0]
	#DEBUG_VALUE: dx <- $x25
	#DEBUG_VALUE: _start:s2_vy <- $x27
	#DEBUG_VALUE: _start:s2_vx <- $x24
	#DEBUG_VALUE: _start:s2_y <- $x23
	#DEBUG_VALUE: _start:s2_x <- [DW_OP_plus_uconst 88] [$x2+0]
	#DEBUG_VALUE: _start:s1_vy <- $x8
	#DEBUG_VALUE: _start:s1_vx <- $x20
	#DEBUG_VALUE: _start:s1_y <- $x30
	#DEBUG_VALUE: _start:s0_vy <- $x9
	#DEBUG_VALUE: _start:s0_y <- $x19
	#DEBUG_VALUE: _start:s0_x <- $x31
	#DEBUG_VALUE: _start:G_M2 <- 30000
	#DEBUG_VALUE: _start:G_M1 <- 30000
	#DEBUG_VALUE: _start:G_M0 <- 150000
	#DEBUG_VALUE: _start:max_y_bounds <- 118784
	#DEBUG_VALUE: _start:max_x_bounds <- 159744
	#DEBUG_VALUE: _start:ONE <- 256
	#DEBUG_VALUE: _start:FRACTION_BITS <- 8
	.loc	0 0 5 is_stmt 0                 # program.c:0:5
	sltiu	t3, t1, 2
	xori	t3, t3, 1
.Ltmp109:
	#DEBUG_VALUE: soft_div:d <- [DW_OP_LLVM_arg 0, DW_OP_LLVM_arg 1, DW_OP_shr, DW_OP_stack_value] $x7, $x28
	li	s5, 0
.Ltmp110:
	.loc	0 64 15 is_stmt 1               # program.c:64:15
	srl	t1, t1, t3
.Ltmp111:
	#DEBUG_VALUE: soft_div:n <- $x5
	#DEBUG_VALUE: soft_div:res <- 0
	#DEBUG_VALUE: soft_div:current <- $x6
	.loc	0 69 5                          # program.c:69:5
	beqz	t1, .LBB0_42
.Ltmp112:
# %bb.40:                               #   in Loop: Header=BB0_2 Depth=1
	#DEBUG_VALUE: soft_div:d <- [DW_OP_LLVM_arg 0, DW_OP_LLVM_arg 1, DW_OP_shr, DW_OP_stack_value] $x7, $x28
	#DEBUG_VALUE: soft_div:current <- $x6
	#DEBUG_VALUE: soft_div:res <- 0
	#DEBUG_VALUE: soft_div:n <- $x5
	#DEBUG_VALUE: soft_div:num <- $x5
	#DEBUG_VALUE: scaled_dy <- $x14
	#DEBUG_VALUE: _start:s1_x <- [DW_OP_plus_uconst 64] [$x2+0]
	#DEBUG_VALUE: scaled_dx <- $x13
	#DEBUG_VALUE: r_cubed <- $x10
	#DEBUG_VALUE: abs_dy <- [DW_OP_plus_uconst 48] [$x2+0]
	#DEBUG_VALUE: abs_dx <- [DW_OP_plus_uconst 52] [$x2+0]
	#DEBUG_VALUE: dy <- [DW_OP_plus_uconst 56] [$x2+0]
	#DEBUG_VALUE: dx <- $x25
	#DEBUG_VALUE: _start:s2_vy <- $x27
	#DEBUG_VALUE: _start:s2_vx <- $x24
	#DEBUG_VALUE: _start:s2_y <- $x23
	#DEBUG_VALUE: _start:s2_x <- [DW_OP_plus_uconst 88] [$x2+0]
	#DEBUG_VALUE: _start:s1_vy <- $x8
	#DEBUG_VALUE: _start:s1_vx <- $x20
	#DEBUG_VALUE: _start:s1_y <- $x30
	#DEBUG_VALUE: _start:s0_vy <- $x9
	#DEBUG_VALUE: _start:s0_y <- $x19
	#DEBUG_VALUE: _start:s0_x <- $x31
	#DEBUG_VALUE: _start:G_M2 <- 30000
	#DEBUG_VALUE: _start:G_M1 <- 30000
	#DEBUG_VALUE: _start:G_M0 <- 150000
	#DEBUG_VALUE: _start:max_y_bounds <- 118784
	#DEBUG_VALUE: _start:max_x_bounds <- 159744
	#DEBUG_VALUE: _start:ONE <- 256
	#DEBUG_VALUE: _start:FRACTION_BITS <- 8
	.loc	0 64 15                         # program.c:64:15
	srl	t2, t2, t3
.Ltmp113:
	#DEBUG_VALUE: soft_div:d <- $x7
.LBB0_41:                               #   Parent Loop BB0_2 Depth=1
                                        # =>  This Inner Loop Header: Depth=2
	#DEBUG_VALUE: soft_div:current <- $x6
	#DEBUG_VALUE: soft_div:d <- $x7
	#DEBUG_VALUE: soft_div:n <- $x5
	#DEBUG_VALUE: scaled_dy <- $x14
	#DEBUG_VALUE: _start:s1_x <- [DW_OP_plus_uconst 64] [$x2+0]
	#DEBUG_VALUE: scaled_dx <- $x13
	#DEBUG_VALUE: r_cubed <- $x10
	#DEBUG_VALUE: abs_dy <- [DW_OP_plus_uconst 48] [$x2+0]
	#DEBUG_VALUE: abs_dx <- [DW_OP_plus_uconst 52] [$x2+0]
	#DEBUG_VALUE: dy <- [DW_OP_plus_uconst 56] [$x2+0]
	#DEBUG_VALUE: dx <- $x25
	#DEBUG_VALUE: _start:s2_vy <- $x27
	#DEBUG_VALUE: _start:s2_vx <- $x24
	#DEBUG_VALUE: _start:s2_y <- $x23
	#DEBUG_VALUE: _start:s2_x <- [DW_OP_plus_uconst 88] [$x2+0]
	#DEBUG_VALUE: _start:s1_vy <- $x8
	#DEBUG_VALUE: _start:s1_vx <- $x20
	#DEBUG_VALUE: _start:s1_y <- $x30
	#DEBUG_VALUE: _start:s0_vy <- $x9
	#DEBUG_VALUE: _start:s0_y <- $x19
	#DEBUG_VALUE: _start:s0_x <- $x31
	#DEBUG_VALUE: _start:G_M2 <- 30000
	#DEBUG_VALUE: _start:G_M1 <- 30000
	#DEBUG_VALUE: _start:G_M0 <- 150000
	#DEBUG_VALUE: _start:max_y_bounds <- 118784
	#DEBUG_VALUE: _start:max_x_bounds <- 159744
	#DEBUG_VALUE: _start:ONE <- 256
	#DEBUG_VALUE: _start:FRACTION_BITS <- 8
	#DEBUG_VALUE: soft_div:n <- $x5
	#DEBUG_VALUE: soft_div:d <- $x7
	#DEBUG_VALUE: soft_div:res <- $x21
	#DEBUG_VALUE: soft_div:current <- $x6
	.loc	0 70 15                         # program.c:70:15
	sltu	t3, t0, t2
	addi	t3, t3, -1
	and	t4, t3, t2
	and	t3, t3, t1
.Ltmp114:
	.loc	0 74 17                         # program.c:74:17
	srli	t1, t1, 1
.Ltmp115:
	#DEBUG_VALUE: soft_div:current <- $x6
	.loc	0 70 15                         # program.c:70:15
	sub	t0, t0, t4
.Ltmp116:
	or	s5, t3, s5
.Ltmp117:
	#DEBUG_VALUE: soft_div:res <- $x21
	#DEBUG_VALUE: soft_div:n <- $x5
	.loc	0 75 11                         # program.c:75:11
	srli	t2, t2, 1
.Ltmp118:
	#DEBUG_VALUE: soft_div:d <- $x7
	.loc	0 69 5                          # program.c:69:5
	bnez	t1, .LBB0_41
.Ltmp119:
.LBB0_42:                               #   in Loop: Header=BB0_2 Depth=1
	#DEBUG_VALUE: soft_div:current <- $x6
	#DEBUG_VALUE: soft_div:n <- $x5
	#DEBUG_VALUE: scaled_dy <- $x14
	#DEBUG_VALUE: _start:s1_x <- [DW_OP_plus_uconst 64] [$x2+0]
	#DEBUG_VALUE: scaled_dx <- $x13
	#DEBUG_VALUE: r_cubed <- $x10
	#DEBUG_VALUE: abs_dy <- [DW_OP_plus_uconst 48] [$x2+0]
	#DEBUG_VALUE: abs_dx <- [DW_OP_plus_uconst 52] [$x2+0]
	#DEBUG_VALUE: dy <- [DW_OP_plus_uconst 56] [$x2+0]
	#DEBUG_VALUE: dx <- $x25
	#DEBUG_VALUE: _start:s2_vy <- $x27
	#DEBUG_VALUE: _start:s2_vx <- $x24
	#DEBUG_VALUE: _start:s2_y <- $x23
	#DEBUG_VALUE: _start:s2_x <- [DW_OP_plus_uconst 88] [$x2+0]
	#DEBUG_VALUE: _start:s1_vy <- $x8
	#DEBUG_VALUE: _start:s1_vx <- $x20
	#DEBUG_VALUE: _start:s1_y <- $x30
	#DEBUG_VALUE: _start:s0_vy <- $x9
	#DEBUG_VALUE: _start:s0_y <- $x19
	#DEBUG_VALUE: _start:s0_x <- $x31
	#DEBUG_VALUE: _start:G_M2 <- 30000
	#DEBUG_VALUE: _start:G_M1 <- 30000
	#DEBUG_VALUE: _start:G_M0 <- 150000
	#DEBUG_VALUE: _start:max_y_bounds <- 118784
	#DEBUG_VALUE: _start:max_x_bounds <- 159744
	#DEBUG_VALUE: _start:ONE <- 256
	#DEBUG_VALUE: _start:FRACTION_BITS <- 8
	.loc	0 77 18                         # program.c:77:18
	xor	a7, a7, a0
	.loc	0 77 12 is_stmt 0               # program.c:77:12
	bgez	a7, .LBB0_44
.Ltmp120:
# %bb.43:                               #   in Loop: Header=BB0_2 Depth=1
	#DEBUG_VALUE: soft_div:current <- $x6
	#DEBUG_VALUE: soft_div:n <- $x5
	#DEBUG_VALUE: scaled_dy <- $x14
	#DEBUG_VALUE: _start:s1_x <- [DW_OP_plus_uconst 64] [$x2+0]
	#DEBUG_VALUE: scaled_dx <- $x13
	#DEBUG_VALUE: r_cubed <- $x10
	#DEBUG_VALUE: abs_dy <- [DW_OP_plus_uconst 48] [$x2+0]
	#DEBUG_VALUE: abs_dx <- [DW_OP_plus_uconst 52] [$x2+0]
	#DEBUG_VALUE: dy <- [DW_OP_plus_uconst 56] [$x2+0]
	#DEBUG_VALUE: dx <- $x25
	#DEBUG_VALUE: _start:s2_vy <- $x27
	#DEBUG_VALUE: _start:s2_vx <- $x24
	#DEBUG_VALUE: _start:s2_y <- $x23
	#DEBUG_VALUE: _start:s2_x <- [DW_OP_plus_uconst 88] [$x2+0]
	#DEBUG_VALUE: _start:s1_vy <- $x8
	#DEBUG_VALUE: _start:s1_vx <- $x20
	#DEBUG_VALUE: _start:s1_y <- $x30
	#DEBUG_VALUE: _start:s0_vy <- $x9
	#DEBUG_VALUE: _start:s0_y <- $x19
	#DEBUG_VALUE: _start:s0_x <- $x31
	#DEBUG_VALUE: _start:G_M2 <- 30000
	#DEBUG_VALUE: _start:G_M1 <- 30000
	#DEBUG_VALUE: _start:G_M0 <- 150000
	#DEBUG_VALUE: _start:max_y_bounds <- 118784
	#DEBUG_VALUE: _start:max_x_bounds <- 159744
	#DEBUG_VALUE: _start:ONE <- 256
	#DEBUG_VALUE: _start:FRACTION_BITS <- 8
	neg	s5, s5
.Ltmp121:
.LBB0_44:                               #   in Loop: Header=BB0_2 Depth=1
	#DEBUG_VALUE: scaled_dy <- $x14
	#DEBUG_VALUE: _start:s1_x <- [DW_OP_plus_uconst 64] [$x2+0]
	#DEBUG_VALUE: scaled_dx <- $x13
	#DEBUG_VALUE: r_cubed <- $x10
	#DEBUG_VALUE: abs_dy <- [DW_OP_plus_uconst 48] [$x2+0]
	#DEBUG_VALUE: abs_dx <- [DW_OP_plus_uconst 52] [$x2+0]
	#DEBUG_VALUE: dy <- [DW_OP_plus_uconst 56] [$x2+0]
	#DEBUG_VALUE: dx <- $x25
	#DEBUG_VALUE: _start:s2_vy <- $x27
	#DEBUG_VALUE: _start:s2_vx <- $x24
	#DEBUG_VALUE: _start:s2_y <- $x23
	#DEBUG_VALUE: _start:s2_x <- [DW_OP_plus_uconst 88] [$x2+0]
	#DEBUG_VALUE: _start:s1_vy <- $x8
	#DEBUG_VALUE: _start:s1_vx <- $x20
	#DEBUG_VALUE: _start:s1_y <- $x30
	#DEBUG_VALUE: _start:s0_vy <- $x9
	#DEBUG_VALUE: _start:s0_y <- $x19
	#DEBUG_VALUE: _start:s0_x <- $x31
	#DEBUG_VALUE: _start:G_M2 <- 30000
	#DEBUG_VALUE: _start:G_M1 <- 30000
	#DEBUG_VALUE: _start:G_M0 <- 150000
	#DEBUG_VALUE: _start:max_y_bounds <- 118784
	#DEBUG_VALUE: _start:max_x_bounds <- 159744
	#DEBUG_VALUE: _start:ONE <- 256
	#DEBUG_VALUE: _start:FRACTION_BITS <- 8
	#DEBUG_VALUE: _start:s0_vx <- undef
	#DEBUG_VALUE: _start:s0_vy <- undef
	#DEBUG_VALUE: soft_mul:res <- 0
	#DEBUG_VALUE: soft_mul:a <- 150000
	#DEBUG_VALUE: soft_mul:sign <- undef
	#DEBUG_VALUE: soft_mul:b <- $x15
	#DEBUG_VALUE: soft_mul:ua <- 150000
	#DEBUG_VALUE: soft_mul:ub <- $x15
	.loc	0 0 12                          # program.c:0:12
	li	a7, 0
.Ltmp122:
	.loc	0 40 5 is_stmt 1                # program.c:40:5
	bltu	s9, s2, .LBB0_47
.Ltmp123:
# %bb.45:                               #   in Loop: Header=BB0_2 Depth=1
	#DEBUG_VALUE: soft_mul:ub <- $x15
	#DEBUG_VALUE: soft_mul:ua <- 150000
	#DEBUG_VALUE: soft_mul:b <- $x15
	#DEBUG_VALUE: soft_mul:a <- 150000
	#DEBUG_VALUE: soft_mul:res <- 0
	#DEBUG_VALUE: scaled_dy <- $x14
	#DEBUG_VALUE: _start:s1_x <- [DW_OP_plus_uconst 64] [$x2+0]
	#DEBUG_VALUE: scaled_dx <- $x13
	#DEBUG_VALUE: r_cubed <- $x10
	#DEBUG_VALUE: abs_dy <- [DW_OP_plus_uconst 48] [$x2+0]
	#DEBUG_VALUE: abs_dx <- [DW_OP_plus_uconst 52] [$x2+0]
	#DEBUG_VALUE: dy <- [DW_OP_plus_uconst 56] [$x2+0]
	#DEBUG_VALUE: dx <- $x25
	#DEBUG_VALUE: _start:s2_vy <- $x27
	#DEBUG_VALUE: _start:s2_vx <- $x24
	#DEBUG_VALUE: _start:s2_y <- $x23
	#DEBUG_VALUE: _start:s2_x <- [DW_OP_plus_uconst 88] [$x2+0]
	#DEBUG_VALUE: _start:s1_vy <- $x8
	#DEBUG_VALUE: _start:s1_vx <- $x20
	#DEBUG_VALUE: _start:s1_y <- $x30
	#DEBUG_VALUE: _start:s0_y <- $x19
	#DEBUG_VALUE: _start:s0_x <- $x31
	#DEBUG_VALUE: _start:G_M2 <- 30000
	#DEBUG_VALUE: _start:G_M1 <- 30000
	#DEBUG_VALUE: _start:G_M0 <- 150000
	#DEBUG_VALUE: _start:max_y_bounds <- 118784
	#DEBUG_VALUE: _start:max_x_bounds <- 159744
	#DEBUG_VALUE: _start:ONE <- 256
	#DEBUG_VALUE: _start:FRACTION_BITS <- 8
	.loc	0 0 5 is_stmt 0                 # program.c:0:5
	lui	t0, 37
	addi	t0, t0, -1552
.Ltmp124:
.LBB0_46:                               #   Parent Loop BB0_2 Depth=1
                                        # =>  This Inner Loop Header: Depth=2
	#DEBUG_VALUE: soft_mul:ub <- $x15
	#DEBUG_VALUE: soft_mul:a <- 150000
	#DEBUG_VALUE: scaled_dy <- $x14
	#DEBUG_VALUE: _start:s1_x <- [DW_OP_plus_uconst 64] [$x2+0]
	#DEBUG_VALUE: scaled_dx <- $x13
	#DEBUG_VALUE: r_cubed <- $x10
	#DEBUG_VALUE: abs_dy <- [DW_OP_plus_uconst 48] [$x2+0]
	#DEBUG_VALUE: abs_dx <- [DW_OP_plus_uconst 52] [$x2+0]
	#DEBUG_VALUE: dy <- [DW_OP_plus_uconst 56] [$x2+0]
	#DEBUG_VALUE: dx <- $x25
	#DEBUG_VALUE: _start:s2_vy <- $x27
	#DEBUG_VALUE: _start:s2_vx <- $x24
	#DEBUG_VALUE: _start:s2_y <- $x23
	#DEBUG_VALUE: _start:s2_x <- [DW_OP_plus_uconst 88] [$x2+0]
	#DEBUG_VALUE: _start:s1_vy <- $x8
	#DEBUG_VALUE: _start:s1_vx <- $x20
	#DEBUG_VALUE: _start:s1_y <- $x30
	#DEBUG_VALUE: _start:s0_y <- $x19
	#DEBUG_VALUE: _start:s0_x <- $x31
	#DEBUG_VALUE: _start:G_M2 <- 30000
	#DEBUG_VALUE: _start:G_M1 <- 30000
	#DEBUG_VALUE: _start:G_M0 <- 150000
	#DEBUG_VALUE: _start:max_y_bounds <- 118784
	#DEBUG_VALUE: _start:max_x_bounds <- 159744
	#DEBUG_VALUE: _start:ONE <- 256
	#DEBUG_VALUE: _start:FRACTION_BITS <- 8
	#DEBUG_VALUE: soft_mul:res <- $x17
	#DEBUG_VALUE: soft_mul:ua <- $x5
	#DEBUG_VALUE: soft_mul:ub <- $x15
	.loc	0 41 16 is_stmt 1               # program.c:41:16
	slli	t1, a5, 31
.Ltmp125:
	.loc	0 43 12                         # program.c:43:12
	srli	a5, a5, 1
.Ltmp126:
	#DEBUG_VALUE: soft_mul:ub <- $x15
	.loc	0 41 16                         # program.c:41:16
	srai	t1, t1, 31
	and	t1, t1, t0
	add	a7, t1, a7
.Ltmp127:
	#DEBUG_VALUE: soft_mul:res <- $x17
	.loc	0 42 12                         # program.c:42:12
	slli	t0, t0, 1
.Ltmp128:
	#DEBUG_VALUE: soft_mul:ua <- $x5
	.loc	0 40 5                          # program.c:40:5
	bnez	a5, .LBB0_46
.Ltmp129:
.LBB0_47:                               #   in Loop: Header=BB0_2 Depth=1
	#DEBUG_VALUE: scaled_dy <- $x14
	#DEBUG_VALUE: _start:s1_x <- [DW_OP_plus_uconst 64] [$x2+0]
	#DEBUG_VALUE: scaled_dx <- $x13
	#DEBUG_VALUE: r_cubed <- $x10
	#DEBUG_VALUE: abs_dy <- [DW_OP_plus_uconst 48] [$x2+0]
	#DEBUG_VALUE: abs_dx <- [DW_OP_plus_uconst 52] [$x2+0]
	#DEBUG_VALUE: dy <- [DW_OP_plus_uconst 56] [$x2+0]
	#DEBUG_VALUE: dx <- $x25
	#DEBUG_VALUE: _start:s2_vy <- $x27
	#DEBUG_VALUE: _start:s2_vx <- $x24
	#DEBUG_VALUE: _start:s2_y <- $x23
	#DEBUG_VALUE: _start:s2_x <- [DW_OP_plus_uconst 88] [$x2+0]
	#DEBUG_VALUE: _start:s1_vy <- $x8
	#DEBUG_VALUE: _start:s1_vx <- $x20
	#DEBUG_VALUE: _start:s1_y <- $x30
	#DEBUG_VALUE: _start:s0_y <- $x19
	#DEBUG_VALUE: _start:s0_x <- $x31
	#DEBUG_VALUE: _start:G_M2 <- 30000
	#DEBUG_VALUE: _start:G_M1 <- 30000
	#DEBUG_VALUE: _start:G_M0 <- 150000
	#DEBUG_VALUE: _start:max_y_bounds <- 118784
	#DEBUG_VALUE: _start:max_x_bounds <- 159744
	#DEBUG_VALUE: _start:ONE <- 256
	#DEBUG_VALUE: _start:FRACTION_BITS <- 8
	#DEBUG_VALUE: _start:s0_vx <- undef
	#DEBUG_VALUE: _start:s0_vy <- undef
	#DEBUG_VALUE: soft_div:num <- undef
	#DEBUG_VALUE: soft_div:den <- $x10
	.loc	0 0 5 is_stmt 0                 # program.c:0:5
	sw	t5, 68(sp)                      # 4-byte Folded Spill
.Ltmp130:
	#DEBUG_VALUE: _start:s1_y <- [DW_OP_plus_uconst 68] [$x2+0]
	sw	s3, 76(sp)                      # 4-byte Folded Spill
.Ltmp131:
	#DEBUG_VALUE: _start:s0_y <- [DW_OP_plus_uconst 76] [$x2+0]
	.loc	0 50 13 is_stmt 1               # program.c:50:13
	beqz	a0, .LBB0_52
.Ltmp132:
# %bb.48:                               #   in Loop: Header=BB0_2 Depth=1
	#DEBUG_VALUE: _start:s0_y <- [DW_OP_plus_uconst 76] [$x2+0]
	#DEBUG_VALUE: _start:s1_y <- [DW_OP_plus_uconst 68] [$x2+0]
	#DEBUG_VALUE: scaled_dy <- $x14
	#DEBUG_VALUE: _start:s1_x <- [DW_OP_plus_uconst 64] [$x2+0]
	#DEBUG_VALUE: scaled_dx <- $x13
	#DEBUG_VALUE: r_cubed <- $x10
	#DEBUG_VALUE: abs_dy <- [DW_OP_plus_uconst 48] [$x2+0]
	#DEBUG_VALUE: abs_dx <- [DW_OP_plus_uconst 52] [$x2+0]
	#DEBUG_VALUE: dy <- [DW_OP_plus_uconst 56] [$x2+0]
	#DEBUG_VALUE: dx <- $x25
	#DEBUG_VALUE: _start:s2_vy <- $x27
	#DEBUG_VALUE: _start:s2_vx <- $x24
	#DEBUG_VALUE: _start:s2_y <- $x23
	#DEBUG_VALUE: _start:s2_x <- [DW_OP_plus_uconst 88] [$x2+0]
	#DEBUG_VALUE: _start:s1_vy <- $x8
	#DEBUG_VALUE: _start:s1_vx <- $x20
	#DEBUG_VALUE: _start:s0_x <- $x31
	#DEBUG_VALUE: _start:G_M2 <- 30000
	#DEBUG_VALUE: _start:G_M1 <- 30000
	#DEBUG_VALUE: _start:G_M0 <- 150000
	#DEBUG_VALUE: _start:max_y_bounds <- 118784
	#DEBUG_VALUE: _start:max_x_bounds <- 159744
	#DEBUG_VALUE: _start:ONE <- 256
	#DEBUG_VALUE: _start:FRACTION_BITS <- 8
	.loc	0 0 13 is_stmt 0                # program.c:0:13
	mv	a5, a7
.Ltmp133:
	.loc	0 45 12 is_stmt 1               # program.c:45:12
	bgez	a3, .LBB0_50
.Ltmp134:
# %bb.49:                               #   in Loop: Header=BB0_2 Depth=1
	#DEBUG_VALUE: _start:s0_y <- [DW_OP_plus_uconst 76] [$x2+0]
	#DEBUG_VALUE: _start:s1_y <- [DW_OP_plus_uconst 68] [$x2+0]
	#DEBUG_VALUE: scaled_dy <- $x14
	#DEBUG_VALUE: _start:s1_x <- [DW_OP_plus_uconst 64] [$x2+0]
	#DEBUG_VALUE: scaled_dx <- $x13
	#DEBUG_VALUE: r_cubed <- $x10
	#DEBUG_VALUE: abs_dy <- [DW_OP_plus_uconst 48] [$x2+0]
	#DEBUG_VALUE: abs_dx <- [DW_OP_plus_uconst 52] [$x2+0]
	#DEBUG_VALUE: dy <- [DW_OP_plus_uconst 56] [$x2+0]
	#DEBUG_VALUE: dx <- $x25
	#DEBUG_VALUE: _start:s2_vy <- $x27
	#DEBUG_VALUE: _start:s2_vx <- $x24
	#DEBUG_VALUE: _start:s2_y <- $x23
	#DEBUG_VALUE: _start:s2_x <- [DW_OP_plus_uconst 88] [$x2+0]
	#DEBUG_VALUE: _start:s1_vy <- $x8
	#DEBUG_VALUE: _start:s1_vx <- $x20
	#DEBUG_VALUE: _start:s0_x <- $x31
	#DEBUG_VALUE: _start:G_M2 <- 30000
	#DEBUG_VALUE: _start:G_M1 <- 30000
	#DEBUG_VALUE: _start:G_M0 <- 150000
	#DEBUG_VALUE: _start:max_y_bounds <- 118784
	#DEBUG_VALUE: _start:max_x_bounds <- 159744
	#DEBUG_VALUE: _start:ONE <- 256
	#DEBUG_VALUE: _start:FRACTION_BITS <- 8
	.loc	0 0 12 is_stmt 0                # program.c:0:12
	neg	a5, a7
.Ltmp135:
.LBB0_50:                               #   in Loop: Header=BB0_2 Depth=1
	#DEBUG_VALUE: _start:s0_y <- [DW_OP_plus_uconst 76] [$x2+0]
	#DEBUG_VALUE: _start:s1_y <- [DW_OP_plus_uconst 68] [$x2+0]
	#DEBUG_VALUE: scaled_dy <- $x14
	#DEBUG_VALUE: _start:s1_x <- [DW_OP_plus_uconst 64] [$x2+0]
	#DEBUG_VALUE: scaled_dx <- $x13
	#DEBUG_VALUE: r_cubed <- $x10
	#DEBUG_VALUE: abs_dy <- [DW_OP_plus_uconst 48] [$x2+0]
	#DEBUG_VALUE: abs_dx <- [DW_OP_plus_uconst 52] [$x2+0]
	#DEBUG_VALUE: dy <- [DW_OP_plus_uconst 56] [$x2+0]
	#DEBUG_VALUE: dx <- $x25
	#DEBUG_VALUE: _start:s2_vy <- $x27
	#DEBUG_VALUE: _start:s2_vx <- $x24
	#DEBUG_VALUE: _start:s2_y <- $x23
	#DEBUG_VALUE: _start:s2_x <- [DW_OP_plus_uconst 88] [$x2+0]
	#DEBUG_VALUE: _start:s1_vy <- $x8
	#DEBUG_VALUE: _start:s1_vx <- $x20
	#DEBUG_VALUE: _start:s0_x <- $x31
	#DEBUG_VALUE: _start:G_M2 <- 30000
	#DEBUG_VALUE: _start:G_M1 <- 30000
	#DEBUG_VALUE: _start:G_M0 <- 150000
	#DEBUG_VALUE: _start:max_y_bounds <- 118784
	#DEBUG_VALUE: _start:max_x_bounds <- 159744
	#DEBUG_VALUE: _start:ONE <- 256
	#DEBUG_VALUE: _start:FRACTION_BITS <- 8
	#DEBUG_VALUE: soft_div:num <- $x15
	#DEBUG_VALUE: soft_div:sign <- 1
	.loc	0 52 13 is_stmt 1               # program.c:52:13
	srai	a3, a7, 31
.Ltmp136:
	xor	a7, a7, a3
	sub	a3, a7, a3
.Ltmp137:
	#DEBUG_VALUE: soft_div:num <- $x13
	#DEBUG_VALUE: soft_div:sign <- undef
	#DEBUG_VALUE: soft_div:n <- $x13
	.loc	0 53 13                         # program.c:53:13
	xor	a7, a1, a2
	sub	t0, a7, a2
.Ltmp138:
	#DEBUG_VALUE: soft_div:den <- $x5
	#DEBUG_VALUE: soft_div:d <- $x5
	#DEBUG_VALUE: soft_div:res <- 0
	#DEBUG_VALUE: soft_div:current <- 1
	.loc	0 60 5                          # program.c:60:5
	bgeu	a3, t0, .LBB0_53
.Ltmp139:
# %bb.51:                               #   in Loop: Header=BB0_2 Depth=1
	#DEBUG_VALUE: soft_div:current <- 1
	#DEBUG_VALUE: soft_div:res <- 0
	#DEBUG_VALUE: soft_div:d <- $x5
	#DEBUG_VALUE: soft_div:den <- $x5
	#DEBUG_VALUE: soft_div:n <- $x13
	#DEBUG_VALUE: soft_div:num <- $x13
	#DEBUG_VALUE: _start:s0_y <- [DW_OP_plus_uconst 76] [$x2+0]
	#DEBUG_VALUE: _start:s1_y <- [DW_OP_plus_uconst 68] [$x2+0]
	#DEBUG_VALUE: scaled_dy <- $x14
	#DEBUG_VALUE: _start:s1_x <- [DW_OP_plus_uconst 64] [$x2+0]
	#DEBUG_VALUE: r_cubed <- $x10
	#DEBUG_VALUE: abs_dy <- [DW_OP_plus_uconst 48] [$x2+0]
	#DEBUG_VALUE: abs_dx <- [DW_OP_plus_uconst 52] [$x2+0]
	#DEBUG_VALUE: dy <- [DW_OP_plus_uconst 56] [$x2+0]
	#DEBUG_VALUE: dx <- $x25
	#DEBUG_VALUE: _start:s2_vy <- $x27
	#DEBUG_VALUE: _start:s2_vx <- $x24
	#DEBUG_VALUE: _start:s2_y <- $x23
	#DEBUG_VALUE: _start:s2_x <- [DW_OP_plus_uconst 88] [$x2+0]
	#DEBUG_VALUE: _start:s1_vy <- $x8
	#DEBUG_VALUE: _start:s1_vx <- $x20
	#DEBUG_VALUE: _start:s0_x <- $x31
	#DEBUG_VALUE: _start:G_M2 <- 30000
	#DEBUG_VALUE: _start:G_M1 <- 30000
	#DEBUG_VALUE: _start:G_M0 <- 150000
	#DEBUG_VALUE: _start:max_y_bounds <- 118784
	#DEBUG_VALUE: _start:max_x_bounds <- 159744
	#DEBUG_VALUE: _start:ONE <- 256
	#DEBUG_VALUE: _start:FRACTION_BITS <- 8
	.loc	0 0 5 is_stmt 0                 # program.c:0:5
	li	a7, 1
	.loc	0 60 5                          # program.c:60:5
	j	.LBB0_55
.Ltmp140:
.LBB0_52:                               #   in Loop: Header=BB0_2 Depth=1
	#DEBUG_VALUE: _start:s0_y <- [DW_OP_plus_uconst 76] [$x2+0]
	#DEBUG_VALUE: _start:s1_y <- [DW_OP_plus_uconst 68] [$x2+0]
	#DEBUG_VALUE: soft_div:den <- $x10
	#DEBUG_VALUE: scaled_dy <- $x14
	#DEBUG_VALUE: _start:s1_x <- [DW_OP_plus_uconst 64] [$x2+0]
	#DEBUG_VALUE: scaled_dx <- $x13
	#DEBUG_VALUE: r_cubed <- $x10
	#DEBUG_VALUE: abs_dy <- [DW_OP_plus_uconst 48] [$x2+0]
	#DEBUG_VALUE: abs_dx <- [DW_OP_plus_uconst 52] [$x2+0]
	#DEBUG_VALUE: dy <- [DW_OP_plus_uconst 56] [$x2+0]
	#DEBUG_VALUE: dx <- $x25
	#DEBUG_VALUE: _start:s2_vy <- $x27
	#DEBUG_VALUE: _start:s2_vx <- $x24
	#DEBUG_VALUE: _start:s2_y <- $x23
	#DEBUG_VALUE: _start:s2_x <- [DW_OP_plus_uconst 88] [$x2+0]
	#DEBUG_VALUE: _start:s1_vy <- $x8
	#DEBUG_VALUE: _start:s1_vx <- $x20
	#DEBUG_VALUE: _start:s0_x <- $x31
	#DEBUG_VALUE: _start:G_M2 <- 30000
	#DEBUG_VALUE: _start:G_M1 <- 30000
	#DEBUG_VALUE: _start:G_M0 <- 150000
	#DEBUG_VALUE: _start:max_y_bounds <- 118784
	#DEBUG_VALUE: _start:max_x_bounds <- 159744
	#DEBUG_VALUE: _start:ONE <- 256
	#DEBUG_VALUE: _start:FRACTION_BITS <- 8
	.loc	0 0 5                           # program.c:0:5
	li	s3, 0
.Ltmp141:
	.loc	0 50 13 is_stmt 1               # program.c:50:13
	j	.LBB0_60
.Ltmp142:
.LBB0_53:                               #   in Loop: Header=BB0_2 Depth=1
	#DEBUG_VALUE: soft_div:current <- 1
	#DEBUG_VALUE: soft_div:res <- 0
	#DEBUG_VALUE: soft_div:d <- $x5
	#DEBUG_VALUE: soft_div:den <- $x5
	#DEBUG_VALUE: soft_div:n <- $x13
	#DEBUG_VALUE: soft_div:num <- $x13
	#DEBUG_VALUE: _start:s0_y <- [DW_OP_plus_uconst 76] [$x2+0]
	#DEBUG_VALUE: _start:s1_y <- [DW_OP_plus_uconst 68] [$x2+0]
	#DEBUG_VALUE: scaled_dy <- $x14
	#DEBUG_VALUE: _start:s1_x <- [DW_OP_plus_uconst 64] [$x2+0]
	#DEBUG_VALUE: r_cubed <- $x10
	#DEBUG_VALUE: abs_dy <- [DW_OP_plus_uconst 48] [$x2+0]
	#DEBUG_VALUE: abs_dx <- [DW_OP_plus_uconst 52] [$x2+0]
	#DEBUG_VALUE: dy <- [DW_OP_plus_uconst 56] [$x2+0]
	#DEBUG_VALUE: dx <- $x25
	#DEBUG_VALUE: _start:s2_vy <- $x27
	#DEBUG_VALUE: _start:s2_vx <- $x24
	#DEBUG_VALUE: _start:s2_y <- $x23
	#DEBUG_VALUE: _start:s2_x <- [DW_OP_plus_uconst 88] [$x2+0]
	#DEBUG_VALUE: _start:s1_vy <- $x8
	#DEBUG_VALUE: _start:s1_vx <- $x20
	#DEBUG_VALUE: _start:s0_x <- $x31
	#DEBUG_VALUE: _start:G_M2 <- 30000
	#DEBUG_VALUE: _start:G_M1 <- 30000
	#DEBUG_VALUE: _start:G_M0 <- 150000
	#DEBUG_VALUE: _start:max_y_bounds <- 118784
	#DEBUG_VALUE: _start:max_x_bounds <- 159744
	#DEBUG_VALUE: _start:ONE <- 256
	#DEBUG_VALUE: _start:FRACTION_BITS <- 8
	.loc	0 0 13 is_stmt 0                # program.c:0:13
	li	a7, 1
.Ltmp143:
.LBB0_54:                               #   Parent Loop BB0_2 Depth=1
                                        # =>  This Inner Loop Header: Depth=2
	#DEBUG_VALUE: soft_div:res <- 0
	#DEBUG_VALUE: soft_div:d <- $x5
	#DEBUG_VALUE: soft_div:n <- $x13
	#DEBUG_VALUE: soft_div:num <- $x13
	#DEBUG_VALUE: _start:s0_y <- [DW_OP_plus_uconst 76] [$x2+0]
	#DEBUG_VALUE: _start:s1_y <- [DW_OP_plus_uconst 68] [$x2+0]
	#DEBUG_VALUE: scaled_dy <- $x14
	#DEBUG_VALUE: _start:s1_x <- [DW_OP_plus_uconst 64] [$x2+0]
	#DEBUG_VALUE: r_cubed <- $x10
	#DEBUG_VALUE: abs_dy <- [DW_OP_plus_uconst 48] [$x2+0]
	#DEBUG_VALUE: abs_dx <- [DW_OP_plus_uconst 52] [$x2+0]
	#DEBUG_VALUE: dy <- [DW_OP_plus_uconst 56] [$x2+0]
	#DEBUG_VALUE: dx <- $x25
	#DEBUG_VALUE: _start:s2_vy <- $x27
	#DEBUG_VALUE: _start:s2_vx <- $x24
	#DEBUG_VALUE: _start:s2_y <- $x23
	#DEBUG_VALUE: _start:s2_x <- [DW_OP_plus_uconst 88] [$x2+0]
	#DEBUG_VALUE: _start:s1_vy <- $x8
	#DEBUG_VALUE: _start:s1_vx <- $x20
	#DEBUG_VALUE: _start:s0_x <- $x31
	#DEBUG_VALUE: _start:G_M2 <- 30000
	#DEBUG_VALUE: _start:G_M1 <- 30000
	#DEBUG_VALUE: _start:G_M0 <- 150000
	#DEBUG_VALUE: _start:max_y_bounds <- 118784
	#DEBUG_VALUE: _start:max_x_bounds <- 159744
	#DEBUG_VALUE: _start:ONE <- 256
	#DEBUG_VALUE: _start:FRACTION_BITS <- 8
	#DEBUG_VALUE: soft_div:d <- $x5
	#DEBUG_VALUE: soft_div:current <- $x17
	.loc	0 61 11 is_stmt 1               # program.c:61:11
	slli	t0, t0, 1
.Ltmp144:
	#DEBUG_VALUE: soft_div:d <- $x5
	.loc	0 62 17                         # program.c:62:17
	slli	a7, a7, 1
.Ltmp145:
	#DEBUG_VALUE: soft_div:current <- $x17
	.loc	0 60 5                          # program.c:60:5
	bgeu	a3, t0, .LBB0_54
.Ltmp146:
.LBB0_55:                               #   in Loop: Header=BB0_2 Depth=1
	#DEBUG_VALUE: soft_div:res <- 0
	#DEBUG_VALUE: soft_div:d <- $x5
	#DEBUG_VALUE: soft_div:n <- $x13
	#DEBUG_VALUE: soft_div:num <- $x13
	#DEBUG_VALUE: _start:s0_y <- [DW_OP_plus_uconst 76] [$x2+0]
	#DEBUG_VALUE: _start:s1_y <- [DW_OP_plus_uconst 68] [$x2+0]
	#DEBUG_VALUE: scaled_dy <- $x14
	#DEBUG_VALUE: _start:s1_x <- [DW_OP_plus_uconst 64] [$x2+0]
	#DEBUG_VALUE: r_cubed <- $x10
	#DEBUG_VALUE: abs_dy <- [DW_OP_plus_uconst 48] [$x2+0]
	#DEBUG_VALUE: abs_dx <- [DW_OP_plus_uconst 52] [$x2+0]
	#DEBUG_VALUE: dy <- [DW_OP_plus_uconst 56] [$x2+0]
	#DEBUG_VALUE: dx <- $x25
	#DEBUG_VALUE: _start:s2_vy <- $x27
	#DEBUG_VALUE: _start:s2_vx <- $x24
	#DEBUG_VALUE: _start:s2_y <- $x23
	#DEBUG_VALUE: _start:s2_x <- [DW_OP_plus_uconst 88] [$x2+0]
	#DEBUG_VALUE: _start:s1_vy <- $x8
	#DEBUG_VALUE: _start:s1_vx <- $x20
	#DEBUG_VALUE: _start:s0_x <- $x31
	#DEBUG_VALUE: _start:G_M2 <- 30000
	#DEBUG_VALUE: _start:G_M1 <- 30000
	#DEBUG_VALUE: _start:G_M0 <- 150000
	#DEBUG_VALUE: _start:max_y_bounds <- 118784
	#DEBUG_VALUE: _start:max_x_bounds <- 159744
	#DEBUG_VALUE: _start:ONE <- 256
	#DEBUG_VALUE: _start:FRACTION_BITS <- 8
	.loc	0 0 5 is_stmt 0                 # program.c:0:5
	sltiu	t1, a7, 2
	xori	t1, t1, 1
.Ltmp147:
	#DEBUG_VALUE: soft_div:d <- [DW_OP_LLVM_arg 0, DW_OP_LLVM_arg 1, DW_OP_shr, DW_OP_stack_value] $x5, $x6
	li	s3, 0
.Ltmp148:
	.loc	0 64 15 is_stmt 1               # program.c:64:15
	srl	a7, a7, t1
.Ltmp149:
	#DEBUG_VALUE: soft_div:n <- $x13
	#DEBUG_VALUE: soft_div:res <- 0
	#DEBUG_VALUE: soft_div:current <- $x17
	.loc	0 69 5                          # program.c:69:5
	beqz	a7, .LBB0_58
.Ltmp150:
# %bb.56:                               #   in Loop: Header=BB0_2 Depth=1
	#DEBUG_VALUE: soft_div:d <- [DW_OP_LLVM_arg 0, DW_OP_LLVM_arg 1, DW_OP_shr, DW_OP_stack_value] $x5, $x6
	#DEBUG_VALUE: soft_div:current <- $x17
	#DEBUG_VALUE: soft_div:res <- 0
	#DEBUG_VALUE: soft_div:n <- $x13
	#DEBUG_VALUE: soft_div:num <- $x13
	#DEBUG_VALUE: _start:s0_y <- [DW_OP_plus_uconst 76] [$x2+0]
	#DEBUG_VALUE: _start:s1_y <- [DW_OP_plus_uconst 68] [$x2+0]
	#DEBUG_VALUE: scaled_dy <- $x14
	#DEBUG_VALUE: _start:s1_x <- [DW_OP_plus_uconst 64] [$x2+0]
	#DEBUG_VALUE: r_cubed <- $x10
	#DEBUG_VALUE: abs_dy <- [DW_OP_plus_uconst 48] [$x2+0]
	#DEBUG_VALUE: abs_dx <- [DW_OP_plus_uconst 52] [$x2+0]
	#DEBUG_VALUE: dy <- [DW_OP_plus_uconst 56] [$x2+0]
	#DEBUG_VALUE: dx <- $x25
	#DEBUG_VALUE: _start:s2_vy <- $x27
	#DEBUG_VALUE: _start:s2_vx <- $x24
	#DEBUG_VALUE: _start:s2_y <- $x23
	#DEBUG_VALUE: _start:s2_x <- [DW_OP_plus_uconst 88] [$x2+0]
	#DEBUG_VALUE: _start:s1_vy <- $x8
	#DEBUG_VALUE: _start:s1_vx <- $x20
	#DEBUG_VALUE: _start:s0_x <- $x31
	#DEBUG_VALUE: _start:G_M2 <- 30000
	#DEBUG_VALUE: _start:G_M1 <- 30000
	#DEBUG_VALUE: _start:G_M0 <- 150000
	#DEBUG_VALUE: _start:max_y_bounds <- 118784
	#DEBUG_VALUE: _start:max_x_bounds <- 159744
	#DEBUG_VALUE: _start:ONE <- 256
	#DEBUG_VALUE: _start:FRACTION_BITS <- 8
	.loc	0 64 15                         # program.c:64:15
	srl	t0, t0, t1
.Ltmp151:
	#DEBUG_VALUE: soft_div:d <- $x5
.LBB0_57:                               #   Parent Loop BB0_2 Depth=1
                                        # =>  This Inner Loop Header: Depth=2
	#DEBUG_VALUE: soft_div:current <- $x17
	#DEBUG_VALUE: soft_div:d <- $x5
	#DEBUG_VALUE: soft_div:n <- $x13
	#DEBUG_VALUE: _start:s0_y <- [DW_OP_plus_uconst 76] [$x2+0]
	#DEBUG_VALUE: _start:s1_y <- [DW_OP_plus_uconst 68] [$x2+0]
	#DEBUG_VALUE: scaled_dy <- $x14
	#DEBUG_VALUE: _start:s1_x <- [DW_OP_plus_uconst 64] [$x2+0]
	#DEBUG_VALUE: r_cubed <- $x10
	#DEBUG_VALUE: abs_dy <- [DW_OP_plus_uconst 48] [$x2+0]
	#DEBUG_VALUE: abs_dx <- [DW_OP_plus_uconst 52] [$x2+0]
	#DEBUG_VALUE: dy <- [DW_OP_plus_uconst 56] [$x2+0]
	#DEBUG_VALUE: dx <- $x25
	#DEBUG_VALUE: _start:s2_vy <- $x27
	#DEBUG_VALUE: _start:s2_vx <- $x24
	#DEBUG_VALUE: _start:s2_y <- $x23
	#DEBUG_VALUE: _start:s2_x <- [DW_OP_plus_uconst 88] [$x2+0]
	#DEBUG_VALUE: _start:s1_vy <- $x8
	#DEBUG_VALUE: _start:s1_vx <- $x20
	#DEBUG_VALUE: _start:s0_x <- $x31
	#DEBUG_VALUE: _start:G_M2 <- 30000
	#DEBUG_VALUE: _start:G_M1 <- 30000
	#DEBUG_VALUE: _start:G_M0 <- 150000
	#DEBUG_VALUE: _start:max_y_bounds <- 118784
	#DEBUG_VALUE: _start:max_x_bounds <- 159744
	#DEBUG_VALUE: _start:ONE <- 256
	#DEBUG_VALUE: _start:FRACTION_BITS <- 8
	#DEBUG_VALUE: soft_div:n <- $x13
	#DEBUG_VALUE: soft_div:d <- $x5
	#DEBUG_VALUE: soft_div:res <- $x19
	#DEBUG_VALUE: soft_div:current <- $x17
	.loc	0 70 15                         # program.c:70:15
	sltu	t1, a3, t0
	addi	t1, t1, -1
	and	t2, t1, t0
	and	t1, t1, a7
.Ltmp152:
	.loc	0 74 17                         # program.c:74:17
	srli	a7, a7, 1
.Ltmp153:
	#DEBUG_VALUE: soft_div:current <- $x17
	.loc	0 70 15                         # program.c:70:15
	sub	a3, a3, t2
.Ltmp154:
	or	s3, t1, s3
.Ltmp155:
	#DEBUG_VALUE: soft_div:res <- $x19
	#DEBUG_VALUE: soft_div:n <- $x13
	.loc	0 75 11                         # program.c:75:11
	srli	t0, t0, 1
.Ltmp156:
	#DEBUG_VALUE: soft_div:d <- $x5
	.loc	0 69 5                          # program.c:69:5
	bnez	a7, .LBB0_57
.Ltmp157:
.LBB0_58:                               #   in Loop: Header=BB0_2 Depth=1
	#DEBUG_VALUE: soft_div:current <- $x17
	#DEBUG_VALUE: soft_div:n <- $x13
	#DEBUG_VALUE: _start:s0_y <- [DW_OP_plus_uconst 76] [$x2+0]
	#DEBUG_VALUE: _start:s1_y <- [DW_OP_plus_uconst 68] [$x2+0]
	#DEBUG_VALUE: scaled_dy <- $x14
	#DEBUG_VALUE: _start:s1_x <- [DW_OP_plus_uconst 64] [$x2+0]
	#DEBUG_VALUE: r_cubed <- $x10
	#DEBUG_VALUE: abs_dy <- [DW_OP_plus_uconst 48] [$x2+0]
	#DEBUG_VALUE: abs_dx <- [DW_OP_plus_uconst 52] [$x2+0]
	#DEBUG_VALUE: dy <- [DW_OP_plus_uconst 56] [$x2+0]
	#DEBUG_VALUE: dx <- $x25
	#DEBUG_VALUE: _start:s2_vy <- $x27
	#DEBUG_VALUE: _start:s2_vx <- $x24
	#DEBUG_VALUE: _start:s2_y <- $x23
	#DEBUG_VALUE: _start:s2_x <- [DW_OP_plus_uconst 88] [$x2+0]
	#DEBUG_VALUE: _start:s1_vy <- $x8
	#DEBUG_VALUE: _start:s1_vx <- $x20
	#DEBUG_VALUE: _start:s0_x <- $x31
	#DEBUG_VALUE: _start:G_M2 <- 30000
	#DEBUG_VALUE: _start:G_M1 <- 30000
	#DEBUG_VALUE: _start:G_M0 <- 150000
	#DEBUG_VALUE: _start:max_y_bounds <- 118784
	#DEBUG_VALUE: _start:max_x_bounds <- 159744
	#DEBUG_VALUE: _start:ONE <- 256
	#DEBUG_VALUE: _start:FRACTION_BITS <- 8
	.loc	0 77 18                         # program.c:77:18
	xor	a5, a5, a0
	.loc	0 77 12 is_stmt 0               # program.c:77:12
	bltz	a5, .LBB0_60
.Ltmp158:
# %bb.59:                               #   in Loop: Header=BB0_2 Depth=1
	#DEBUG_VALUE: soft_div:current <- $x17
	#DEBUG_VALUE: soft_div:n <- $x13
	#DEBUG_VALUE: _start:s0_y <- [DW_OP_plus_uconst 76] [$x2+0]
	#DEBUG_VALUE: _start:s1_y <- [DW_OP_plus_uconst 68] [$x2+0]
	#DEBUG_VALUE: scaled_dy <- $x14
	#DEBUG_VALUE: _start:s1_x <- [DW_OP_plus_uconst 64] [$x2+0]
	#DEBUG_VALUE: r_cubed <- $x10
	#DEBUG_VALUE: abs_dy <- [DW_OP_plus_uconst 48] [$x2+0]
	#DEBUG_VALUE: abs_dx <- [DW_OP_plus_uconst 52] [$x2+0]
	#DEBUG_VALUE: dy <- [DW_OP_plus_uconst 56] [$x2+0]
	#DEBUG_VALUE: dx <- $x25
	#DEBUG_VALUE: _start:s2_vy <- $x27
	#DEBUG_VALUE: _start:s2_vx <- $x24
	#DEBUG_VALUE: _start:s2_y <- $x23
	#DEBUG_VALUE: _start:s2_x <- [DW_OP_plus_uconst 88] [$x2+0]
	#DEBUG_VALUE: _start:s1_vy <- $x8
	#DEBUG_VALUE: _start:s1_vx <- $x20
	#DEBUG_VALUE: _start:s0_x <- $x31
	#DEBUG_VALUE: _start:G_M2 <- 30000
	#DEBUG_VALUE: _start:G_M1 <- 30000
	#DEBUG_VALUE: _start:G_M0 <- 150000
	#DEBUG_VALUE: _start:max_y_bounds <- 118784
	#DEBUG_VALUE: _start:max_x_bounds <- 159744
	#DEBUG_VALUE: _start:ONE <- 256
	#DEBUG_VALUE: _start:FRACTION_BITS <- 8
	.loc	0 0 12                          # program.c:0:12
	neg	s3, s3
.Ltmp159:
.LBB0_60:                               #   in Loop: Header=BB0_2 Depth=1
	#DEBUG_VALUE: _start:s0_y <- [DW_OP_plus_uconst 76] [$x2+0]
	#DEBUG_VALUE: _start:s1_y <- [DW_OP_plus_uconst 68] [$x2+0]
	#DEBUG_VALUE: scaled_dy <- $x14
	#DEBUG_VALUE: _start:s1_x <- [DW_OP_plus_uconst 64] [$x2+0]
	#DEBUG_VALUE: r_cubed <- $x10
	#DEBUG_VALUE: abs_dy <- [DW_OP_plus_uconst 48] [$x2+0]
	#DEBUG_VALUE: abs_dx <- [DW_OP_plus_uconst 52] [$x2+0]
	#DEBUG_VALUE: dy <- [DW_OP_plus_uconst 56] [$x2+0]
	#DEBUG_VALUE: dx <- $x25
	#DEBUG_VALUE: _start:s2_vy <- $x27
	#DEBUG_VALUE: _start:s2_vx <- $x24
	#DEBUG_VALUE: _start:s2_y <- $x23
	#DEBUG_VALUE: _start:s2_x <- [DW_OP_plus_uconst 88] [$x2+0]
	#DEBUG_VALUE: _start:s1_vy <- $x8
	#DEBUG_VALUE: _start:s1_vx <- $x20
	#DEBUG_VALUE: _start:s0_x <- $x31
	#DEBUG_VALUE: _start:G_M2 <- 30000
	#DEBUG_VALUE: _start:G_M1 <- 30000
	#DEBUG_VALUE: _start:G_M0 <- 150000
	#DEBUG_VALUE: _start:max_y_bounds <- 118784
	#DEBUG_VALUE: _start:max_x_bounds <- 159744
	#DEBUG_VALUE: _start:ONE <- 256
	#DEBUG_VALUE: _start:FRACTION_BITS <- 8
	#DEBUG_VALUE: _start:s0_vx <- undef
	#DEBUG_VALUE: _start:s0_vy <- undef
	#DEBUG_VALUE: _start:s1_vx <- undef
	#DEBUG_VALUE: soft_mul:res <- 0
	#DEBUG_VALUE: soft_mul:a <- 150000
	#DEBUG_VALUE: soft_mul:sign <- undef
	#DEBUG_VALUE: soft_mul:b <- $x16
	#DEBUG_VALUE: soft_mul:ua <- 150000
	#DEBUG_VALUE: soft_mul:ub <- $x16
	lw	a3, 56(sp)                      # 4-byte Folded Reload
.Ltmp160:
	.loc	0 40 5 is_stmt 1                # program.c:40:5
	bgeu	a3, s2, .LBB0_62
.Ltmp161:
# %bb.61:                               #   in Loop: Header=BB0_2 Depth=1
	#DEBUG_VALUE: soft_mul:ub <- $x16
	#DEBUG_VALUE: soft_mul:ua <- 150000
	#DEBUG_VALUE: soft_mul:b <- $x16
	#DEBUG_VALUE: soft_mul:a <- 150000
	#DEBUG_VALUE: soft_mul:res <- 0
	#DEBUG_VALUE: _start:s0_y <- [DW_OP_plus_uconst 76] [$x2+0]
	#DEBUG_VALUE: _start:s1_y <- [DW_OP_plus_uconst 68] [$x2+0]
	#DEBUG_VALUE: scaled_dy <- $x14
	#DEBUG_VALUE: _start:s1_x <- [DW_OP_plus_uconst 64] [$x2+0]
	#DEBUG_VALUE: r_cubed <- $x10
	#DEBUG_VALUE: abs_dy <- [DW_OP_plus_uconst 48] [$x2+0]
	#DEBUG_VALUE: abs_dx <- [DW_OP_plus_uconst 52] [$x2+0]
	#DEBUG_VALUE: dy <- [DW_OP_plus_uconst 56] [$x2+0]
	#DEBUG_VALUE: dx <- $x25
	#DEBUG_VALUE: _start:s2_vy <- $x27
	#DEBUG_VALUE: _start:s2_vx <- $x24
	#DEBUG_VALUE: _start:s2_y <- $x23
	#DEBUG_VALUE: _start:s2_x <- [DW_OP_plus_uconst 88] [$x2+0]
	#DEBUG_VALUE: _start:s1_vy <- $x8
	#DEBUG_VALUE: _start:s0_x <- $x31
	#DEBUG_VALUE: _start:G_M2 <- 30000
	#DEBUG_VALUE: _start:G_M1 <- 30000
	#DEBUG_VALUE: _start:G_M0 <- 150000
	#DEBUG_VALUE: _start:max_y_bounds <- 118784
	#DEBUG_VALUE: _start:max_x_bounds <- 159744
	#DEBUG_VALUE: _start:ONE <- 256
	#DEBUG_VALUE: _start:FRACTION_BITS <- 8
	.loc	0 0 5 is_stmt 0                 # program.c:0:5
	li	a5, 0
	.loc	0 40 5                          # program.c:40:5
	j	.LBB0_64
.Ltmp162:
.LBB0_62:                               #   in Loop: Header=BB0_2 Depth=1
	#DEBUG_VALUE: soft_mul:ub <- $x16
	#DEBUG_VALUE: soft_mul:ua <- 150000
	#DEBUG_VALUE: soft_mul:b <- $x16
	#DEBUG_VALUE: soft_mul:a <- 150000
	#DEBUG_VALUE: soft_mul:res <- 0
	#DEBUG_VALUE: _start:s0_y <- [DW_OP_plus_uconst 76] [$x2+0]
	#DEBUG_VALUE: _start:s1_y <- [DW_OP_plus_uconst 68] [$x2+0]
	#DEBUG_VALUE: scaled_dy <- $x14
	#DEBUG_VALUE: _start:s1_x <- [DW_OP_plus_uconst 64] [$x2+0]
	#DEBUG_VALUE: r_cubed <- $x10
	#DEBUG_VALUE: abs_dy <- [DW_OP_plus_uconst 48] [$x2+0]
	#DEBUG_VALUE: abs_dx <- [DW_OP_plus_uconst 52] [$x2+0]
	#DEBUG_VALUE: dy <- [DW_OP_plus_uconst 56] [$x2+0]
	#DEBUG_VALUE: dx <- $x25
	#DEBUG_VALUE: _start:s2_vy <- $x27
	#DEBUG_VALUE: _start:s2_vx <- $x24
	#DEBUG_VALUE: _start:s2_y <- $x23
	#DEBUG_VALUE: _start:s2_x <- [DW_OP_plus_uconst 88] [$x2+0]
	#DEBUG_VALUE: _start:s1_vy <- $x8
	#DEBUG_VALUE: _start:s0_x <- $x31
	#DEBUG_VALUE: _start:G_M2 <- 30000
	#DEBUG_VALUE: _start:G_M1 <- 30000
	#DEBUG_VALUE: _start:G_M0 <- 150000
	#DEBUG_VALUE: _start:max_y_bounds <- 118784
	#DEBUG_VALUE: _start:max_x_bounds <- 159744
	#DEBUG_VALUE: _start:ONE <- 256
	#DEBUG_VALUE: _start:FRACTION_BITS <- 8
	.loc	0 0 5                           # program.c:0:5
	li	a5, 0
	lui	a3, 37
	addi	a3, a3, -1552
.Ltmp163:
.LBB0_63:                               #   Parent Loop BB0_2 Depth=1
                                        # =>  This Inner Loop Header: Depth=2
	#DEBUG_VALUE: soft_mul:ub <- $x16
	#DEBUG_VALUE: soft_mul:a <- 150000
	#DEBUG_VALUE: _start:s0_y <- [DW_OP_plus_uconst 76] [$x2+0]
	#DEBUG_VALUE: _start:s1_y <- [DW_OP_plus_uconst 68] [$x2+0]
	#DEBUG_VALUE: scaled_dy <- $x14
	#DEBUG_VALUE: _start:s1_x <- [DW_OP_plus_uconst 64] [$x2+0]
	#DEBUG_VALUE: r_cubed <- $x10
	#DEBUG_VALUE: abs_dy <- [DW_OP_plus_uconst 48] [$x2+0]
	#DEBUG_VALUE: abs_dx <- [DW_OP_plus_uconst 52] [$x2+0]
	#DEBUG_VALUE: dy <- [DW_OP_plus_uconst 56] [$x2+0]
	#DEBUG_VALUE: dx <- $x25
	#DEBUG_VALUE: _start:s2_vy <- $x27
	#DEBUG_VALUE: _start:s2_vx <- $x24
	#DEBUG_VALUE: _start:s2_y <- $x23
	#DEBUG_VALUE: _start:s2_x <- [DW_OP_plus_uconst 88] [$x2+0]
	#DEBUG_VALUE: _start:s1_vy <- $x8
	#DEBUG_VALUE: _start:s0_x <- $x31
	#DEBUG_VALUE: _start:G_M2 <- 30000
	#DEBUG_VALUE: _start:G_M1 <- 30000
	#DEBUG_VALUE: _start:G_M0 <- 150000
	#DEBUG_VALUE: _start:max_y_bounds <- 118784
	#DEBUG_VALUE: _start:max_x_bounds <- 159744
	#DEBUG_VALUE: _start:ONE <- 256
	#DEBUG_VALUE: _start:FRACTION_BITS <- 8
	#DEBUG_VALUE: soft_mul:res <- $x15
	#DEBUG_VALUE: soft_mul:ua <- $x13
	#DEBUG_VALUE: soft_mul:ub <- $x16
	.loc	0 41 16 is_stmt 1               # program.c:41:16
	slli	a7, a6, 31
.Ltmp164:
	.loc	0 43 12                         # program.c:43:12
	srli	a6, a6, 1
.Ltmp165:
	#DEBUG_VALUE: soft_mul:ub <- $x16
	.loc	0 41 16                         # program.c:41:16
	srai	a7, a7, 31
	and	a7, a7, a3
	add	a5, a7, a5
.Ltmp166:
	#DEBUG_VALUE: soft_mul:res <- $x15
	.loc	0 42 12                         # program.c:42:12
	slli	a3, a3, 1
.Ltmp167:
	#DEBUG_VALUE: soft_mul:ua <- $x13
	.loc	0 40 5                          # program.c:40:5
	bnez	a6, .LBB0_63
.Ltmp168:
.LBB0_64:                               #   in Loop: Header=BB0_2 Depth=1
	#DEBUG_VALUE: _start:s0_y <- [DW_OP_plus_uconst 76] [$x2+0]
	#DEBUG_VALUE: _start:s1_y <- [DW_OP_plus_uconst 68] [$x2+0]
	#DEBUG_VALUE: scaled_dy <- $x14
	#DEBUG_VALUE: _start:s1_x <- [DW_OP_plus_uconst 64] [$x2+0]
	#DEBUG_VALUE: r_cubed <- $x10
	#DEBUG_VALUE: abs_dy <- [DW_OP_plus_uconst 48] [$x2+0]
	#DEBUG_VALUE: abs_dx <- [DW_OP_plus_uconst 52] [$x2+0]
	#DEBUG_VALUE: dy <- [DW_OP_plus_uconst 56] [$x2+0]
	#DEBUG_VALUE: dx <- $x25
	#DEBUG_VALUE: _start:s2_vy <- $x27
	#DEBUG_VALUE: _start:s2_vx <- $x24
	#DEBUG_VALUE: _start:s2_y <- $x23
	#DEBUG_VALUE: _start:s2_x <- [DW_OP_plus_uconst 88] [$x2+0]
	#DEBUG_VALUE: _start:s1_vy <- $x8
	#DEBUG_VALUE: _start:s0_x <- $x31
	#DEBUG_VALUE: _start:G_M2 <- 30000
	#DEBUG_VALUE: _start:G_M1 <- 30000
	#DEBUG_VALUE: _start:G_M0 <- 150000
	#DEBUG_VALUE: _start:max_y_bounds <- 118784
	#DEBUG_VALUE: _start:max_x_bounds <- 159744
	#DEBUG_VALUE: _start:ONE <- 256
	#DEBUG_VALUE: _start:FRACTION_BITS <- 8
	#DEBUG_VALUE: _start:s0_vx <- undef
	#DEBUG_VALUE: _start:s0_vy <- undef
	#DEBUG_VALUE: _start:s1_vx <- undef
	#DEBUG_VALUE: soft_div:num <- undef
	#DEBUG_VALUE: soft_div:den <- $x10
	.loc	0 0 5 is_stmt 0                 # program.c:0:5
	sw	s9, 28(sp)                      # 4-byte Folded Spill
.Ltmp169:
	#DEBUG_VALUE: dx <- [DW_OP_plus_uconst 28] [$x2+0]
	.loc	0 50 13 is_stmt 1               # program.c:50:13
	beqz	a0, .LBB0_69
.Ltmp170:
# %bb.65:                               #   in Loop: Header=BB0_2 Depth=1
	#DEBUG_VALUE: dx <- [DW_OP_plus_uconst 28] [$x2+0]
	#DEBUG_VALUE: _start:s0_y <- [DW_OP_plus_uconst 76] [$x2+0]
	#DEBUG_VALUE: _start:s1_y <- [DW_OP_plus_uconst 68] [$x2+0]
	#DEBUG_VALUE: scaled_dy <- $x14
	#DEBUG_VALUE: _start:s1_x <- [DW_OP_plus_uconst 64] [$x2+0]
	#DEBUG_VALUE: r_cubed <- $x10
	#DEBUG_VALUE: abs_dy <- [DW_OP_plus_uconst 48] [$x2+0]
	#DEBUG_VALUE: abs_dx <- [DW_OP_plus_uconst 52] [$x2+0]
	#DEBUG_VALUE: dy <- [DW_OP_plus_uconst 56] [$x2+0]
	#DEBUG_VALUE: _start:s2_vy <- $x27
	#DEBUG_VALUE: _start:s2_vx <- $x24
	#DEBUG_VALUE: _start:s2_y <- $x23
	#DEBUG_VALUE: _start:s2_x <- [DW_OP_plus_uconst 88] [$x2+0]
	#DEBUG_VALUE: _start:s1_vy <- $x8
	#DEBUG_VALUE: _start:s0_x <- $x31
	#DEBUG_VALUE: _start:G_M2 <- 30000
	#DEBUG_VALUE: _start:G_M1 <- 30000
	#DEBUG_VALUE: _start:G_M0 <- 150000
	#DEBUG_VALUE: _start:max_y_bounds <- 118784
	#DEBUG_VALUE: _start:max_x_bounds <- 159744
	#DEBUG_VALUE: _start:ONE <- 256
	#DEBUG_VALUE: _start:FRACTION_BITS <- 8
	.loc	0 0 13 is_stmt 0                # program.c:0:13
	mv	a3, a5
.Ltmp171:
	.loc	0 45 12 is_stmt 1               # program.c:45:12
	bgez	a4, .LBB0_67
.Ltmp172:
# %bb.66:                               #   in Loop: Header=BB0_2 Depth=1
	#DEBUG_VALUE: dx <- [DW_OP_plus_uconst 28] [$x2+0]
	#DEBUG_VALUE: _start:s0_y <- [DW_OP_plus_uconst 76] [$x2+0]
	#DEBUG_VALUE: _start:s1_y <- [DW_OP_plus_uconst 68] [$x2+0]
	#DEBUG_VALUE: scaled_dy <- $x14
	#DEBUG_VALUE: _start:s1_x <- [DW_OP_plus_uconst 64] [$x2+0]
	#DEBUG_VALUE: r_cubed <- $x10
	#DEBUG_VALUE: abs_dy <- [DW_OP_plus_uconst 48] [$x2+0]
	#DEBUG_VALUE: abs_dx <- [DW_OP_plus_uconst 52] [$x2+0]
	#DEBUG_VALUE: dy <- [DW_OP_plus_uconst 56] [$x2+0]
	#DEBUG_VALUE: _start:s2_vy <- $x27
	#DEBUG_VALUE: _start:s2_vx <- $x24
	#DEBUG_VALUE: _start:s2_y <- $x23
	#DEBUG_VALUE: _start:s2_x <- [DW_OP_plus_uconst 88] [$x2+0]
	#DEBUG_VALUE: _start:s1_vy <- $x8
	#DEBUG_VALUE: _start:s0_x <- $x31
	#DEBUG_VALUE: _start:G_M2 <- 30000
	#DEBUG_VALUE: _start:G_M1 <- 30000
	#DEBUG_VALUE: _start:G_M0 <- 150000
	#DEBUG_VALUE: _start:max_y_bounds <- 118784
	#DEBUG_VALUE: _start:max_x_bounds <- 159744
	#DEBUG_VALUE: _start:ONE <- 256
	#DEBUG_VALUE: _start:FRACTION_BITS <- 8
	.loc	0 0 12 is_stmt 0                # program.c:0:12
	neg	a3, a5
.Ltmp173:
.LBB0_67:                               #   in Loop: Header=BB0_2 Depth=1
	#DEBUG_VALUE: dx <- [DW_OP_plus_uconst 28] [$x2+0]
	#DEBUG_VALUE: _start:s0_y <- [DW_OP_plus_uconst 76] [$x2+0]
	#DEBUG_VALUE: _start:s1_y <- [DW_OP_plus_uconst 68] [$x2+0]
	#DEBUG_VALUE: scaled_dy <- $x14
	#DEBUG_VALUE: _start:s1_x <- [DW_OP_plus_uconst 64] [$x2+0]
	#DEBUG_VALUE: r_cubed <- $x10
	#DEBUG_VALUE: abs_dy <- [DW_OP_plus_uconst 48] [$x2+0]
	#DEBUG_VALUE: abs_dx <- [DW_OP_plus_uconst 52] [$x2+0]
	#DEBUG_VALUE: dy <- [DW_OP_plus_uconst 56] [$x2+0]
	#DEBUG_VALUE: _start:s2_vy <- $x27
	#DEBUG_VALUE: _start:s2_vx <- $x24
	#DEBUG_VALUE: _start:s2_y <- $x23
	#DEBUG_VALUE: _start:s2_x <- [DW_OP_plus_uconst 88] [$x2+0]
	#DEBUG_VALUE: _start:s1_vy <- $x8
	#DEBUG_VALUE: _start:s0_x <- $x31
	#DEBUG_VALUE: _start:G_M2 <- 30000
	#DEBUG_VALUE: _start:G_M1 <- 30000
	#DEBUG_VALUE: _start:G_M0 <- 150000
	#DEBUG_VALUE: _start:max_y_bounds <- 118784
	#DEBUG_VALUE: _start:max_x_bounds <- 159744
	#DEBUG_VALUE: _start:ONE <- 256
	#DEBUG_VALUE: _start:FRACTION_BITS <- 8
	#DEBUG_VALUE: soft_div:num <- $x13
	#DEBUG_VALUE: soft_div:sign <- 1
	.loc	0 52 13 is_stmt 1               # program.c:52:13
	srai	a4, a5, 31
.Ltmp174:
	.loc	0 53 13                         # program.c:53:13
	xor	a6, a1, a2
.Ltmp175:
	.loc	0 52 13                         # program.c:52:13
	xor	a1, a5, a4
	sub	a1, a1, a4
.Ltmp176:
	#DEBUG_VALUE: soft_div:num <- $x11
	#DEBUG_VALUE: soft_div:sign <- undef
	#DEBUG_VALUE: soft_div:n <- $x11
	.loc	0 53 13                         # program.c:53:13
	sub	a4, a6, a2
.Ltmp177:
	#DEBUG_VALUE: soft_div:den <- $x14
	#DEBUG_VALUE: soft_div:d <- $x14
	#DEBUG_VALUE: soft_div:res <- 0
	#DEBUG_VALUE: soft_div:current <- 1
	.loc	0 60 5                          # program.c:60:5
	bgeu	a1, a4, .LBB0_70
.Ltmp178:
# %bb.68:                               #   in Loop: Header=BB0_2 Depth=1
	#DEBUG_VALUE: soft_div:current <- 1
	#DEBUG_VALUE: soft_div:res <- 0
	#DEBUG_VALUE: soft_div:d <- $x14
	#DEBUG_VALUE: soft_div:den <- $x14
	#DEBUG_VALUE: soft_div:n <- $x11
	#DEBUG_VALUE: soft_div:num <- $x11
	#DEBUG_VALUE: dx <- [DW_OP_plus_uconst 28] [$x2+0]
	#DEBUG_VALUE: _start:s0_y <- [DW_OP_plus_uconst 76] [$x2+0]
	#DEBUG_VALUE: _start:s1_y <- [DW_OP_plus_uconst 68] [$x2+0]
	#DEBUG_VALUE: _start:s1_x <- [DW_OP_plus_uconst 64] [$x2+0]
	#DEBUG_VALUE: r_cubed <- $x10
	#DEBUG_VALUE: abs_dy <- [DW_OP_plus_uconst 48] [$x2+0]
	#DEBUG_VALUE: abs_dx <- [DW_OP_plus_uconst 52] [$x2+0]
	#DEBUG_VALUE: dy <- [DW_OP_plus_uconst 56] [$x2+0]
	#DEBUG_VALUE: _start:s2_vy <- $x27
	#DEBUG_VALUE: _start:s2_vx <- $x24
	#DEBUG_VALUE: _start:s2_y <- $x23
	#DEBUG_VALUE: _start:s2_x <- [DW_OP_plus_uconst 88] [$x2+0]
	#DEBUG_VALUE: _start:s1_vy <- $x8
	#DEBUG_VALUE: _start:s0_x <- $x31
	#DEBUG_VALUE: _start:G_M2 <- 30000
	#DEBUG_VALUE: _start:G_M1 <- 30000
	#DEBUG_VALUE: _start:G_M0 <- 150000
	#DEBUG_VALUE: _start:max_y_bounds <- 118784
	#DEBUG_VALUE: _start:max_x_bounds <- 159744
	#DEBUG_VALUE: _start:ONE <- 256
	#DEBUG_VALUE: _start:FRACTION_BITS <- 8
	.loc	0 0 5 is_stmt 0                 # program.c:0:5
	li	a2, 1
	.loc	0 60 5                          # program.c:60:5
	j	.LBB0_72
.Ltmp179:
.LBB0_69:                               #   in Loop: Header=BB0_2 Depth=1
	#DEBUG_VALUE: dx <- [DW_OP_plus_uconst 28] [$x2+0]
	#DEBUG_VALUE: soft_div:den <- $x10
	#DEBUG_VALUE: _start:s0_y <- [DW_OP_plus_uconst 76] [$x2+0]
	#DEBUG_VALUE: _start:s1_y <- [DW_OP_plus_uconst 68] [$x2+0]
	#DEBUG_VALUE: scaled_dy <- $x14
	#DEBUG_VALUE: _start:s1_x <- [DW_OP_plus_uconst 64] [$x2+0]
	#DEBUG_VALUE: r_cubed <- $x10
	#DEBUG_VALUE: abs_dy <- [DW_OP_plus_uconst 48] [$x2+0]
	#DEBUG_VALUE: abs_dx <- [DW_OP_plus_uconst 52] [$x2+0]
	#DEBUG_VALUE: dy <- [DW_OP_plus_uconst 56] [$x2+0]
	#DEBUG_VALUE: _start:s2_vy <- $x27
	#DEBUG_VALUE: _start:s2_vx <- $x24
	#DEBUG_VALUE: _start:s2_y <- $x23
	#DEBUG_VALUE: _start:s2_x <- [DW_OP_plus_uconst 88] [$x2+0]
	#DEBUG_VALUE: _start:s1_vy <- $x8
	#DEBUG_VALUE: _start:s0_x <- $x31
	#DEBUG_VALUE: _start:G_M2 <- 30000
	#DEBUG_VALUE: _start:G_M1 <- 30000
	#DEBUG_VALUE: _start:G_M0 <- 150000
	#DEBUG_VALUE: _start:max_y_bounds <- 118784
	#DEBUG_VALUE: _start:max_x_bounds <- 159744
	#DEBUG_VALUE: _start:ONE <- 256
	#DEBUG_VALUE: _start:FRACTION_BITS <- 8
	.loc	0 0 5                           # program.c:0:5
	li	s9, 0
.Ltmp180:
	.loc	0 50 13 is_stmt 1               # program.c:50:13
	j	.LBB0_77
.Ltmp181:
.LBB0_70:                               #   in Loop: Header=BB0_2 Depth=1
	#DEBUG_VALUE: soft_div:current <- 1
	#DEBUG_VALUE: soft_div:res <- 0
	#DEBUG_VALUE: soft_div:d <- $x14
	#DEBUG_VALUE: soft_div:den <- $x14
	#DEBUG_VALUE: soft_div:n <- $x11
	#DEBUG_VALUE: soft_div:num <- $x11
	#DEBUG_VALUE: dx <- [DW_OP_plus_uconst 28] [$x2+0]
	#DEBUG_VALUE: _start:s0_y <- [DW_OP_plus_uconst 76] [$x2+0]
	#DEBUG_VALUE: _start:s1_y <- [DW_OP_plus_uconst 68] [$x2+0]
	#DEBUG_VALUE: _start:s1_x <- [DW_OP_plus_uconst 64] [$x2+0]
	#DEBUG_VALUE: r_cubed <- $x10
	#DEBUG_VALUE: abs_dy <- [DW_OP_plus_uconst 48] [$x2+0]
	#DEBUG_VALUE: abs_dx <- [DW_OP_plus_uconst 52] [$x2+0]
	#DEBUG_VALUE: dy <- [DW_OP_plus_uconst 56] [$x2+0]
	#DEBUG_VALUE: _start:s2_vy <- $x27
	#DEBUG_VALUE: _start:s2_vx <- $x24
	#DEBUG_VALUE: _start:s2_y <- $x23
	#DEBUG_VALUE: _start:s2_x <- [DW_OP_plus_uconst 88] [$x2+0]
	#DEBUG_VALUE: _start:s1_vy <- $x8
	#DEBUG_VALUE: _start:s0_x <- $x31
	#DEBUG_VALUE: _start:G_M2 <- 30000
	#DEBUG_VALUE: _start:G_M1 <- 30000
	#DEBUG_VALUE: _start:G_M0 <- 150000
	#DEBUG_VALUE: _start:max_y_bounds <- 118784
	#DEBUG_VALUE: _start:max_x_bounds <- 159744
	#DEBUG_VALUE: _start:ONE <- 256
	#DEBUG_VALUE: _start:FRACTION_BITS <- 8
	.loc	0 0 13 is_stmt 0                # program.c:0:13
	li	a2, 1
.Ltmp182:
.LBB0_71:                               #   Parent Loop BB0_2 Depth=1
                                        # =>  This Inner Loop Header: Depth=2
	#DEBUG_VALUE: soft_div:res <- 0
	#DEBUG_VALUE: soft_div:d <- $x14
	#DEBUG_VALUE: soft_div:n <- $x11
	#DEBUG_VALUE: soft_div:num <- $x11
	#DEBUG_VALUE: dx <- [DW_OP_plus_uconst 28] [$x2+0]
	#DEBUG_VALUE: _start:s0_y <- [DW_OP_plus_uconst 76] [$x2+0]
	#DEBUG_VALUE: _start:s1_y <- [DW_OP_plus_uconst 68] [$x2+0]
	#DEBUG_VALUE: _start:s1_x <- [DW_OP_plus_uconst 64] [$x2+0]
	#DEBUG_VALUE: r_cubed <- $x10
	#DEBUG_VALUE: abs_dy <- [DW_OP_plus_uconst 48] [$x2+0]
	#DEBUG_VALUE: abs_dx <- [DW_OP_plus_uconst 52] [$x2+0]
	#DEBUG_VALUE: dy <- [DW_OP_plus_uconst 56] [$x2+0]
	#DEBUG_VALUE: _start:s2_vy <- $x27
	#DEBUG_VALUE: _start:s2_vx <- $x24
	#DEBUG_VALUE: _start:s2_y <- $x23
	#DEBUG_VALUE: _start:s2_x <- [DW_OP_plus_uconst 88] [$x2+0]
	#DEBUG_VALUE: _start:s1_vy <- $x8
	#DEBUG_VALUE: _start:s0_x <- $x31
	#DEBUG_VALUE: _start:G_M2 <- 30000
	#DEBUG_VALUE: _start:G_M1 <- 30000
	#DEBUG_VALUE: _start:G_M0 <- 150000
	#DEBUG_VALUE: _start:max_y_bounds <- 118784
	#DEBUG_VALUE: _start:max_x_bounds <- 159744
	#DEBUG_VALUE: _start:ONE <- 256
	#DEBUG_VALUE: _start:FRACTION_BITS <- 8
	#DEBUG_VALUE: soft_div:d <- $x14
	#DEBUG_VALUE: soft_div:current <- $x12
	.loc	0 61 11 is_stmt 1               # program.c:61:11
	slli	a4, a4, 1
.Ltmp183:
	#DEBUG_VALUE: soft_div:d <- $x14
	.loc	0 62 17                         # program.c:62:17
	slli	a2, a2, 1
.Ltmp184:
	#DEBUG_VALUE: soft_div:current <- $x12
	.loc	0 60 5                          # program.c:60:5
	bgeu	a1, a4, .LBB0_71
.Ltmp185:
.LBB0_72:                               #   in Loop: Header=BB0_2 Depth=1
	#DEBUG_VALUE: soft_div:res <- 0
	#DEBUG_VALUE: soft_div:d <- $x14
	#DEBUG_VALUE: soft_div:n <- $x11
	#DEBUG_VALUE: soft_div:num <- $x11
	#DEBUG_VALUE: dx <- [DW_OP_plus_uconst 28] [$x2+0]
	#DEBUG_VALUE: _start:s0_y <- [DW_OP_plus_uconst 76] [$x2+0]
	#DEBUG_VALUE: _start:s1_y <- [DW_OP_plus_uconst 68] [$x2+0]
	#DEBUG_VALUE: _start:s1_x <- [DW_OP_plus_uconst 64] [$x2+0]
	#DEBUG_VALUE: r_cubed <- $x10
	#DEBUG_VALUE: abs_dy <- [DW_OP_plus_uconst 48] [$x2+0]
	#DEBUG_VALUE: abs_dx <- [DW_OP_plus_uconst 52] [$x2+0]
	#DEBUG_VALUE: dy <- [DW_OP_plus_uconst 56] [$x2+0]
	#DEBUG_VALUE: _start:s2_vy <- $x27
	#DEBUG_VALUE: _start:s2_vx <- $x24
	#DEBUG_VALUE: _start:s2_y <- $x23
	#DEBUG_VALUE: _start:s2_x <- [DW_OP_plus_uconst 88] [$x2+0]
	#DEBUG_VALUE: _start:s1_vy <- $x8
	#DEBUG_VALUE: _start:s0_x <- $x31
	#DEBUG_VALUE: _start:G_M2 <- 30000
	#DEBUG_VALUE: _start:G_M1 <- 30000
	#DEBUG_VALUE: _start:G_M0 <- 150000
	#DEBUG_VALUE: _start:max_y_bounds <- 118784
	#DEBUG_VALUE: _start:max_x_bounds <- 159744
	#DEBUG_VALUE: _start:ONE <- 256
	#DEBUG_VALUE: _start:FRACTION_BITS <- 8
	.loc	0 0 5 is_stmt 0                 # program.c:0:5
	sltiu	a5, a2, 2
	xori	a5, a5, 1
.Ltmp186:
	#DEBUG_VALUE: soft_div:d <- [DW_OP_LLVM_arg 0, DW_OP_LLVM_arg 1, DW_OP_shr, DW_OP_stack_value] $x14, $x15
	li	s9, 0
.Ltmp187:
	.loc	0 64 15 is_stmt 1               # program.c:64:15
	srl	a2, a2, a5
.Ltmp188:
	#DEBUG_VALUE: soft_div:n <- $x11
	#DEBUG_VALUE: soft_div:res <- 0
	#DEBUG_VALUE: soft_div:current <- $x12
	.loc	0 69 5                          # program.c:69:5
	beqz	a2, .LBB0_75
.Ltmp189:
# %bb.73:                               #   in Loop: Header=BB0_2 Depth=1
	#DEBUG_VALUE: soft_div:d <- [DW_OP_LLVM_arg 0, DW_OP_LLVM_arg 1, DW_OP_shr, DW_OP_stack_value] $x14, $x15
	#DEBUG_VALUE: soft_div:current <- $x12
	#DEBUG_VALUE: soft_div:res <- 0
	#DEBUG_VALUE: soft_div:n <- $x11
	#DEBUG_VALUE: soft_div:num <- $x11
	#DEBUG_VALUE: dx <- [DW_OP_plus_uconst 28] [$x2+0]
	#DEBUG_VALUE: _start:s0_y <- [DW_OP_plus_uconst 76] [$x2+0]
	#DEBUG_VALUE: _start:s1_y <- [DW_OP_plus_uconst 68] [$x2+0]
	#DEBUG_VALUE: _start:s1_x <- [DW_OP_plus_uconst 64] [$x2+0]
	#DEBUG_VALUE: r_cubed <- $x10
	#DEBUG_VALUE: abs_dy <- [DW_OP_plus_uconst 48] [$x2+0]
	#DEBUG_VALUE: abs_dx <- [DW_OP_plus_uconst 52] [$x2+0]
	#DEBUG_VALUE: dy <- [DW_OP_plus_uconst 56] [$x2+0]
	#DEBUG_VALUE: _start:s2_vy <- $x27
	#DEBUG_VALUE: _start:s2_vx <- $x24
	#DEBUG_VALUE: _start:s2_y <- $x23
	#DEBUG_VALUE: _start:s2_x <- [DW_OP_plus_uconst 88] [$x2+0]
	#DEBUG_VALUE: _start:s1_vy <- $x8
	#DEBUG_VALUE: _start:s0_x <- $x31
	#DEBUG_VALUE: _start:G_M2 <- 30000
	#DEBUG_VALUE: _start:G_M1 <- 30000
	#DEBUG_VALUE: _start:G_M0 <- 150000
	#DEBUG_VALUE: _start:max_y_bounds <- 118784
	#DEBUG_VALUE: _start:max_x_bounds <- 159744
	#DEBUG_VALUE: _start:ONE <- 256
	#DEBUG_VALUE: _start:FRACTION_BITS <- 8
	.loc	0 64 15                         # program.c:64:15
	srl	a4, a4, a5
.Ltmp190:
	#DEBUG_VALUE: soft_div:d <- $x14
.LBB0_74:                               #   Parent Loop BB0_2 Depth=1
                                        # =>  This Inner Loop Header: Depth=2
	#DEBUG_VALUE: soft_div:current <- $x12
	#DEBUG_VALUE: soft_div:d <- $x14
	#DEBUG_VALUE: soft_div:n <- $x11
	#DEBUG_VALUE: dx <- [DW_OP_plus_uconst 28] [$x2+0]
	#DEBUG_VALUE: _start:s0_y <- [DW_OP_plus_uconst 76] [$x2+0]
	#DEBUG_VALUE: _start:s1_y <- [DW_OP_plus_uconst 68] [$x2+0]
	#DEBUG_VALUE: _start:s1_x <- [DW_OP_plus_uconst 64] [$x2+0]
	#DEBUG_VALUE: r_cubed <- $x10
	#DEBUG_VALUE: abs_dy <- [DW_OP_plus_uconst 48] [$x2+0]
	#DEBUG_VALUE: abs_dx <- [DW_OP_plus_uconst 52] [$x2+0]
	#DEBUG_VALUE: dy <- [DW_OP_plus_uconst 56] [$x2+0]
	#DEBUG_VALUE: _start:s2_vy <- $x27
	#DEBUG_VALUE: _start:s2_vx <- $x24
	#DEBUG_VALUE: _start:s2_y <- $x23
	#DEBUG_VALUE: _start:s2_x <- [DW_OP_plus_uconst 88] [$x2+0]
	#DEBUG_VALUE: _start:s1_vy <- $x8
	#DEBUG_VALUE: _start:s0_x <- $x31
	#DEBUG_VALUE: _start:G_M2 <- 30000
	#DEBUG_VALUE: _start:G_M1 <- 30000
	#DEBUG_VALUE: _start:G_M0 <- 150000
	#DEBUG_VALUE: _start:max_y_bounds <- 118784
	#DEBUG_VALUE: _start:max_x_bounds <- 159744
	#DEBUG_VALUE: _start:ONE <- 256
	#DEBUG_VALUE: _start:FRACTION_BITS <- 8
	#DEBUG_VALUE: soft_div:n <- $x11
	#DEBUG_VALUE: soft_div:d <- $x14
	#DEBUG_VALUE: soft_div:res <- $x25
	#DEBUG_VALUE: soft_div:current <- $x12
	.loc	0 70 15                         # program.c:70:15
	sltu	a5, a1, a4
	addi	a5, a5, -1
	and	a6, a5, a4
	and	a5, a5, a2
.Ltmp191:
	.loc	0 74 17                         # program.c:74:17
	srli	a2, a2, 1
.Ltmp192:
	#DEBUG_VALUE: soft_div:current <- $x12
	.loc	0 70 15                         # program.c:70:15
	sub	a1, a1, a6
.Ltmp193:
	or	s9, a5, s9
.Ltmp194:
	#DEBUG_VALUE: soft_div:res <- $x25
	#DEBUG_VALUE: soft_div:n <- $x11
	.loc	0 75 11                         # program.c:75:11
	srli	a4, a4, 1
.Ltmp195:
	#DEBUG_VALUE: soft_div:d <- $x14
	.loc	0 69 5                          # program.c:69:5
	bnez	a2, .LBB0_74
.Ltmp196:
.LBB0_75:                               #   in Loop: Header=BB0_2 Depth=1
	#DEBUG_VALUE: soft_div:current <- $x12
	#DEBUG_VALUE: soft_div:n <- $x11
	#DEBUG_VALUE: dx <- [DW_OP_plus_uconst 28] [$x2+0]
	#DEBUG_VALUE: _start:s0_y <- [DW_OP_plus_uconst 76] [$x2+0]
	#DEBUG_VALUE: _start:s1_y <- [DW_OP_plus_uconst 68] [$x2+0]
	#DEBUG_VALUE: _start:s1_x <- [DW_OP_plus_uconst 64] [$x2+0]
	#DEBUG_VALUE: r_cubed <- $x10
	#DEBUG_VALUE: abs_dy <- [DW_OP_plus_uconst 48] [$x2+0]
	#DEBUG_VALUE: abs_dx <- [DW_OP_plus_uconst 52] [$x2+0]
	#DEBUG_VALUE: dy <- [DW_OP_plus_uconst 56] [$x2+0]
	#DEBUG_VALUE: _start:s2_vy <- $x27
	#DEBUG_VALUE: _start:s2_vx <- $x24
	#DEBUG_VALUE: _start:s2_y <- $x23
	#DEBUG_VALUE: _start:s2_x <- [DW_OP_plus_uconst 88] [$x2+0]
	#DEBUG_VALUE: _start:s1_vy <- $x8
	#DEBUG_VALUE: _start:s0_x <- $x31
	#DEBUG_VALUE: _start:G_M2 <- 30000
	#DEBUG_VALUE: _start:G_M1 <- 30000
	#DEBUG_VALUE: _start:G_M0 <- 150000
	#DEBUG_VALUE: _start:max_y_bounds <- 118784
	#DEBUG_VALUE: _start:max_x_bounds <- 159744
	#DEBUG_VALUE: _start:ONE <- 256
	#DEBUG_VALUE: _start:FRACTION_BITS <- 8
	.loc	0 77 18                         # program.c:77:18
	xor	a0, a3, a0
.Ltmp197:
	.loc	0 77 12 is_stmt 0               # program.c:77:12
	bltz	a0, .LBB0_77
.Ltmp198:
# %bb.76:                               #   in Loop: Header=BB0_2 Depth=1
	#DEBUG_VALUE: soft_div:current <- $x12
	#DEBUG_VALUE: soft_div:n <- $x11
	#DEBUG_VALUE: dx <- [DW_OP_plus_uconst 28] [$x2+0]
	#DEBUG_VALUE: _start:s0_y <- [DW_OP_plus_uconst 76] [$x2+0]
	#DEBUG_VALUE: _start:s1_y <- [DW_OP_plus_uconst 68] [$x2+0]
	#DEBUG_VALUE: _start:s1_x <- [DW_OP_plus_uconst 64] [$x2+0]
	#DEBUG_VALUE: abs_dy <- [DW_OP_plus_uconst 48] [$x2+0]
	#DEBUG_VALUE: abs_dx <- [DW_OP_plus_uconst 52] [$x2+0]
	#DEBUG_VALUE: dy <- [DW_OP_plus_uconst 56] [$x2+0]
	#DEBUG_VALUE: _start:s2_vy <- $x27
	#DEBUG_VALUE: _start:s2_vx <- $x24
	#DEBUG_VALUE: _start:s2_y <- $x23
	#DEBUG_VALUE: _start:s2_x <- [DW_OP_plus_uconst 88] [$x2+0]
	#DEBUG_VALUE: _start:s1_vy <- $x8
	#DEBUG_VALUE: _start:s0_x <- $x31
	#DEBUG_VALUE: _start:G_M2 <- 30000
	#DEBUG_VALUE: _start:G_M1 <- 30000
	#DEBUG_VALUE: _start:G_M0 <- 150000
	#DEBUG_VALUE: _start:max_y_bounds <- 118784
	#DEBUG_VALUE: _start:max_x_bounds <- 159744
	#DEBUG_VALUE: _start:ONE <- 256
	#DEBUG_VALUE: _start:FRACTION_BITS <- 8
	.loc	0 0 12                          # program.c:0:12
	neg	s9, s9
.Ltmp199:
.LBB0_77:                               #   in Loop: Header=BB0_2 Depth=1
	#DEBUG_VALUE: dx <- [DW_OP_plus_uconst 28] [$x2+0]
	#DEBUG_VALUE: _start:s0_y <- [DW_OP_plus_uconst 76] [$x2+0]
	#DEBUG_VALUE: _start:s1_y <- [DW_OP_plus_uconst 68] [$x2+0]
	#DEBUG_VALUE: _start:s1_x <- [DW_OP_plus_uconst 64] [$x2+0]
	#DEBUG_VALUE: abs_dy <- [DW_OP_plus_uconst 48] [$x2+0]
	#DEBUG_VALUE: abs_dx <- [DW_OP_plus_uconst 52] [$x2+0]
	#DEBUG_VALUE: dy <- [DW_OP_plus_uconst 56] [$x2+0]
	#DEBUG_VALUE: _start:s2_vy <- $x27
	#DEBUG_VALUE: _start:s2_vx <- $x24
	#DEBUG_VALUE: _start:s2_y <- $x23
	#DEBUG_VALUE: _start:s2_x <- [DW_OP_plus_uconst 88] [$x2+0]
	#DEBUG_VALUE: _start:s1_vy <- $x8
	#DEBUG_VALUE: _start:s0_x <- $x31
	#DEBUG_VALUE: _start:G_M2 <- 30000
	#DEBUG_VALUE: _start:G_M1 <- 30000
	#DEBUG_VALUE: _start:G_M0 <- 150000
	#DEBUG_VALUE: _start:max_y_bounds <- 118784
	#DEBUG_VALUE: _start:max_x_bounds <- 159744
	#DEBUG_VALUE: _start:ONE <- 256
	#DEBUG_VALUE: _start:FRACTION_BITS <- 8
	#DEBUG_VALUE: _start:s0_vx <- undef
	#DEBUG_VALUE: _start:s0_vy <- undef
	#DEBUG_VALUE: _start:s1_vx <- undef
	#DEBUG_VALUE: _start:s1_vy <- undef
	lw	a0, 88(sp)                      # 4-byte Folded Reload
	.loc	0 170 19 is_stmt 1              # program.c:170:19
	sub	a5, a0, t6
.Ltmp200:
	#DEBUG_VALUE: dx <- $x15
	.loc	0 0 19 is_stmt 0                # program.c:0:19
	lw	a0, 76(sp)                      # 4-byte Folded Reload
	.loc	0 171 19 is_stmt 1              # program.c:171:19
	sub	a1, s7, a0
.Ltmp201:
	#DEBUG_VALUE: dy <- $x11
	.loc	0 172 18                        # program.c:172:18
	srai	a3, a5, 31
	.loc	0 173 18                        # program.c:173:18
	srai	a0, a1, 31
	.loc	0 172 18                        # program.c:172:18
	xor	a2, a5, a3
	.loc	0 173 18                        # program.c:173:18
	xor	a4, a1, a0
	.loc	0 172 18                        # program.c:172:18
	sub	a2, a2, a3
.Ltmp202:
	#DEBUG_VALUE: abs_dx <- $x12
	.loc	0 173 18                        # program.c:173:18
	sub	a4, a4, a0
.Ltmp203:
	#DEBUG_VALUE: abs_dy <- $x14
	.loc	0 174 20                        # program.c:174:20
	add	a4, a2, a4
.Ltmp204:
	#DEBUG_VALUE: r <- $x14
	.loc	0 0 20 is_stmt 0                # program.c:0:20
	li	a0, 15
	slli	a0, a0, 8
.Ltmp205:
	.loc	0 175 15 is_stmt 1              # program.c:175:15
	bltu	a0, a4, .LBB0_79
.Ltmp206:
# %bb.78:                               #   in Loop: Header=BB0_2 Depth=1
	#DEBUG_VALUE: r <- $x14
	#DEBUG_VALUE: abs_dx <- $x12
	#DEBUG_VALUE: dy <- $x11
	#DEBUG_VALUE: dx <- $x15
	#DEBUG_VALUE: _start:s0_y <- [DW_OP_plus_uconst 76] [$x2+0]
	#DEBUG_VALUE: _start:s1_y <- [DW_OP_plus_uconst 68] [$x2+0]
	#DEBUG_VALUE: _start:s1_x <- [DW_OP_plus_uconst 64] [$x2+0]
	#DEBUG_VALUE: _start:s2_vy <- $x27
	#DEBUG_VALUE: _start:s2_vx <- $x24
	#DEBUG_VALUE: _start:s2_y <- $x23
	#DEBUG_VALUE: _start:s2_x <- [DW_OP_plus_uconst 88] [$x2+0]
	#DEBUG_VALUE: _start:s0_x <- $x31
	#DEBUG_VALUE: _start:G_M2 <- 30000
	#DEBUG_VALUE: _start:G_M1 <- 30000
	#DEBUG_VALUE: _start:G_M0 <- 150000
	#DEBUG_VALUE: _start:max_y_bounds <- 118784
	#DEBUG_VALUE: _start:max_x_bounds <- 159744
	#DEBUG_VALUE: _start:ONE <- 256
	#DEBUG_VALUE: _start:FRACTION_BITS <- 8
	.loc	0 0 15 is_stmt 0                # program.c:0:15
	mv	a4, a0
.Ltmp207:
.LBB0_79:                               #   in Loop: Header=BB0_2 Depth=1
	#DEBUG_VALUE: abs_dx <- $x12
	#DEBUG_VALUE: dy <- $x11
	#DEBUG_VALUE: dx <- $x15
	#DEBUG_VALUE: _start:s0_y <- [DW_OP_plus_uconst 76] [$x2+0]
	#DEBUG_VALUE: _start:s1_y <- [DW_OP_plus_uconst 68] [$x2+0]
	#DEBUG_VALUE: _start:s1_x <- [DW_OP_plus_uconst 64] [$x2+0]
	#DEBUG_VALUE: _start:s2_vy <- $x27
	#DEBUG_VALUE: _start:s2_vx <- $x24
	#DEBUG_VALUE: _start:s2_y <- $x23
	#DEBUG_VALUE: _start:s2_x <- [DW_OP_plus_uconst 88] [$x2+0]
	#DEBUG_VALUE: _start:s0_x <- $x31
	#DEBUG_VALUE: _start:G_M2 <- 30000
	#DEBUG_VALUE: _start:G_M1 <- 30000
	#DEBUG_VALUE: _start:G_M0 <- 150000
	#DEBUG_VALUE: _start:max_y_bounds <- 118784
	#DEBUG_VALUE: _start:max_x_bounds <- 159744
	#DEBUG_VALUE: _start:ONE <- 256
	#DEBUG_VALUE: _start:FRACTION_BITS <- 8
	li	a0, 0
	add	s10, s10, s6
.Ltmp208:
	#DEBUG_VALUE: _start:s0_vx <- $x26
	add	s5, s5, s1
.Ltmp209:
	#DEBUG_VALUE: _start:s0_vy <- $x21
	add	s3, s3, s4
.Ltmp210:
	#DEBUG_VALUE: _start:s1_vx <- $x19
	.loc	0 176 19 is_stmt 1              # program.c:176:19
	srli	a4, a4, 8
.Ltmp211:
	#DEBUG_VALUE: r_int <- $x14
	#DEBUG_VALUE: soft_mul:a <- $x14
	#DEBUG_VALUE: soft_mul:b <- $x14
	#DEBUG_VALUE: soft_mul:ua <- $x14
	#DEBUG_VALUE: soft_mul:ub <- $x14
	#DEBUG_VALUE: soft_mul:res <- 0
	#DEBUG_VALUE: soft_mul:sign <- 1
	.loc	0 0 0 is_stmt 0                 # program.c:0:0
	add	s9, s9, s0
.Ltmp212:
	#DEBUG_VALUE: _start:s1_vy <- $x25
	#DEBUG_VALUE: r <- undef
	mv	a2, a4
.Ltmp213:
	mv	a6, a4
.Ltmp214:
.LBB0_80:                               #   Parent Loop BB0_2 Depth=1
                                        # =>  This Inner Loop Header: Depth=2
	#DEBUG_VALUE: _start:s1_vy <- $x25
	#DEBUG_VALUE: soft_mul:sign <- 1
	#DEBUG_VALUE: soft_mul:b <- $x14
	#DEBUG_VALUE: soft_mul:a <- $x14
	#DEBUG_VALUE: r_int <- $x14
	#DEBUG_VALUE: _start:s1_vx <- $x19
	#DEBUG_VALUE: _start:s0_vy <- $x21
	#DEBUG_VALUE: _start:s0_vx <- $x26
	#DEBUG_VALUE: dy <- $x11
	#DEBUG_VALUE: dx <- $x15
	#DEBUG_VALUE: _start:s0_y <- [DW_OP_plus_uconst 76] [$x2+0]
	#DEBUG_VALUE: _start:s1_y <- [DW_OP_plus_uconst 68] [$x2+0]
	#DEBUG_VALUE: _start:s1_x <- [DW_OP_plus_uconst 64] [$x2+0]
	#DEBUG_VALUE: _start:s2_vy <- $x27
	#DEBUG_VALUE: _start:s2_vx <- $x24
	#DEBUG_VALUE: _start:s2_y <- $x23
	#DEBUG_VALUE: _start:s2_x <- [DW_OP_plus_uconst 88] [$x2+0]
	#DEBUG_VALUE: _start:s0_x <- $x31
	#DEBUG_VALUE: _start:G_M2 <- 30000
	#DEBUG_VALUE: _start:G_M1 <- 30000
	#DEBUG_VALUE: _start:G_M0 <- 150000
	#DEBUG_VALUE: _start:max_y_bounds <- 118784
	#DEBUG_VALUE: _start:max_x_bounds <- 159744
	#DEBUG_VALUE: _start:ONE <- 256
	#DEBUG_VALUE: _start:FRACTION_BITS <- 8
	#DEBUG_VALUE: soft_mul:ua <- $x16
	#DEBUG_VALUE: soft_mul:ub <- $x12
	#DEBUG_VALUE: soft_mul:res <- $x10
	.loc	0 41 16 is_stmt 1               # program.c:41:16
	slli	a7, a2, 31
.Ltmp215:
	.loc	0 43 12                         # program.c:43:12
	srli	a2, a2, 1
.Ltmp216:
	#DEBUG_VALUE: soft_mul:ub <- $x12
	.loc	0 41 16                         # program.c:41:16
	srai	a7, a7, 31
	and	a7, a7, a6
	add	a0, a7, a0
.Ltmp217:
	#DEBUG_VALUE: soft_mul:res <- $x10
	.loc	0 42 12                         # program.c:42:12
	slli	a6, a6, 1
.Ltmp218:
	#DEBUG_VALUE: soft_mul:ua <- $x16
	.loc	0 40 5                          # program.c:40:5
	bnez	a2, .LBB0_80
.Ltmp219:
# %bb.81:                               #   in Loop: Header=BB0_2 Depth=1
	#DEBUG_VALUE: _start:s1_vy <- $x25
	#DEBUG_VALUE: r_int <- $x14
	#DEBUG_VALUE: _start:s1_vx <- $x19
	#DEBUG_VALUE: _start:s0_vy <- $x21
	#DEBUG_VALUE: _start:s0_vx <- $x26
	#DEBUG_VALUE: dy <- $x11
	#DEBUG_VALUE: dx <- $x15
	#DEBUG_VALUE: _start:s0_y <- [DW_OP_plus_uconst 76] [$x2+0]
	#DEBUG_VALUE: _start:s1_y <- [DW_OP_plus_uconst 68] [$x2+0]
	#DEBUG_VALUE: _start:s1_x <- [DW_OP_plus_uconst 64] [$x2+0]
	#DEBUG_VALUE: _start:s2_vy <- $x27
	#DEBUG_VALUE: _start:s2_vx <- $x24
	#DEBUG_VALUE: _start:s2_y <- $x23
	#DEBUG_VALUE: _start:s2_x <- [DW_OP_plus_uconst 88] [$x2+0]
	#DEBUG_VALUE: _start:s0_x <- $x31
	#DEBUG_VALUE: _start:G_M2 <- 30000
	#DEBUG_VALUE: _start:G_M1 <- 30000
	#DEBUG_VALUE: _start:G_M0 <- 150000
	#DEBUG_VALUE: _start:max_y_bounds <- 118784
	#DEBUG_VALUE: _start:max_x_bounds <- 159744
	#DEBUG_VALUE: _start:ONE <- 256
	#DEBUG_VALUE: _start:FRACTION_BITS <- 8
	#DEBUG_VALUE: soft_mul:a <- $x14
	#DEBUG_VALUE: soft_mul:sign <- undef
	#DEBUG_VALUE: soft_mul:b <- undef
	#DEBUG_VALUE: soft_mul:ua <- $x14
	#DEBUG_VALUE: soft_mul:ub <- undef
	#DEBUG_VALUE: soft_mul:res <- 0
	.loc	0 0 5 is_stmt 0                 # program.c:0:5
	li	a2, 0
.Ltmp220:
	.loc	0 40 5                          # program.c:40:5
	beqz	a0, .LBB0_84
.Ltmp221:
# %bb.82:                               #   in Loop: Header=BB0_2 Depth=1
	#DEBUG_VALUE: soft_mul:res <- 0
	#DEBUG_VALUE: soft_mul:ua <- $x14
	#DEBUG_VALUE: soft_mul:a <- $x14
	#DEBUG_VALUE: _start:s1_vy <- $x25
	#DEBUG_VALUE: r_int <- $x14
	#DEBUG_VALUE: _start:s1_vx <- $x19
	#DEBUG_VALUE: _start:s0_vy <- $x21
	#DEBUG_VALUE: _start:s0_vx <- $x26
	#DEBUG_VALUE: dy <- $x11
	#DEBUG_VALUE: dx <- $x15
	#DEBUG_VALUE: _start:s0_y <- [DW_OP_plus_uconst 76] [$x2+0]
	#DEBUG_VALUE: _start:s1_y <- [DW_OP_plus_uconst 68] [$x2+0]
	#DEBUG_VALUE: _start:s1_x <- [DW_OP_plus_uconst 64] [$x2+0]
	#DEBUG_VALUE: _start:s2_vy <- $x27
	#DEBUG_VALUE: _start:s2_vx <- $x24
	#DEBUG_VALUE: _start:s2_y <- $x23
	#DEBUG_VALUE: _start:s2_x <- [DW_OP_plus_uconst 88] [$x2+0]
	#DEBUG_VALUE: _start:s0_x <- $x31
	#DEBUG_VALUE: _start:G_M2 <- 30000
	#DEBUG_VALUE: _start:G_M1 <- 30000
	#DEBUG_VALUE: _start:G_M0 <- 150000
	#DEBUG_VALUE: _start:max_y_bounds <- 118784
	#DEBUG_VALUE: _start:max_x_bounds <- 159744
	#DEBUG_VALUE: _start:ONE <- 256
	#DEBUG_VALUE: _start:FRACTION_BITS <- 8
	.loc	0 38 11 is_stmt 1               # program.c:38:11
	srai	a6, a0, 31
	xor	a7, a0, a6
	sub	a6, a7, a6
.Ltmp222:
	#DEBUG_VALUE: soft_mul:b <- $x16
	#DEBUG_VALUE: soft_mul:ub <- $x16
.LBB0_83:                               #   Parent Loop BB0_2 Depth=1
                                        # =>  This Inner Loop Header: Depth=2
	#DEBUG_VALUE: soft_mul:ub <- $x16
	#DEBUG_VALUE: soft_mul:ua <- $x14
	#DEBUG_VALUE: _start:s1_vy <- $x25
	#DEBUG_VALUE: _start:s1_vx <- $x19
	#DEBUG_VALUE: _start:s0_vy <- $x21
	#DEBUG_VALUE: _start:s0_vx <- $x26
	#DEBUG_VALUE: dy <- $x11
	#DEBUG_VALUE: dx <- $x15
	#DEBUG_VALUE: _start:s0_y <- [DW_OP_plus_uconst 76] [$x2+0]
	#DEBUG_VALUE: _start:s1_y <- [DW_OP_plus_uconst 68] [$x2+0]
	#DEBUG_VALUE: _start:s1_x <- [DW_OP_plus_uconst 64] [$x2+0]
	#DEBUG_VALUE: _start:s2_vy <- $x27
	#DEBUG_VALUE: _start:s2_vx <- $x24
	#DEBUG_VALUE: _start:s2_y <- $x23
	#DEBUG_VALUE: _start:s2_x <- [DW_OP_plus_uconst 88] [$x2+0]
	#DEBUG_VALUE: _start:s0_x <- $x31
	#DEBUG_VALUE: _start:G_M2 <- 30000
	#DEBUG_VALUE: _start:G_M1 <- 30000
	#DEBUG_VALUE: _start:G_M0 <- 150000
	#DEBUG_VALUE: _start:max_y_bounds <- 118784
	#DEBUG_VALUE: _start:max_x_bounds <- 159744
	#DEBUG_VALUE: _start:ONE <- 256
	#DEBUG_VALUE: _start:FRACTION_BITS <- 8
	#DEBUG_VALUE: soft_mul:ua <- $x14
	#DEBUG_VALUE: soft_mul:ub <- $x16
	#DEBUG_VALUE: soft_mul:res <- $x12
	.loc	0 41 16                         # program.c:41:16
	slli	a7, a6, 31
.Ltmp223:
	.loc	0 43 12                         # program.c:43:12
	srli	a6, a6, 1
.Ltmp224:
	#DEBUG_VALUE: soft_mul:ub <- $x16
	.loc	0 41 16                         # program.c:41:16
	srai	a7, a7, 31
	and	a7, a7, a4
	add	a2, a7, a2
.Ltmp225:
	#DEBUG_VALUE: soft_mul:res <- $x12
	.loc	0 42 12                         # program.c:42:12
	slli	a4, a4, 1
.Ltmp226:
	#DEBUG_VALUE: soft_mul:ua <- $x14
	.loc	0 40 5                          # program.c:40:5
	bnez	a6, .LBB0_83
.Ltmp227:
.LBB0_84:                               #   in Loop: Header=BB0_2 Depth=1
	#DEBUG_VALUE: soft_mul:ua <- $x14
	#DEBUG_VALUE: _start:s1_vy <- $x25
	#DEBUG_VALUE: _start:s1_vx <- $x19
	#DEBUG_VALUE: _start:s0_vy <- $x21
	#DEBUG_VALUE: _start:s0_vx <- $x26
	#DEBUG_VALUE: dy <- $x11
	#DEBUG_VALUE: dx <- $x15
	#DEBUG_VALUE: _start:s0_y <- [DW_OP_plus_uconst 76] [$x2+0]
	#DEBUG_VALUE: _start:s1_y <- [DW_OP_plus_uconst 68] [$x2+0]
	#DEBUG_VALUE: _start:s1_x <- [DW_OP_plus_uconst 64] [$x2+0]
	#DEBUG_VALUE: _start:s2_vy <- $x27
	#DEBUG_VALUE: _start:s2_vx <- $x24
	#DEBUG_VALUE: _start:s2_y <- $x23
	#DEBUG_VALUE: _start:s2_x <- [DW_OP_plus_uconst 88] [$x2+0]
	#DEBUG_VALUE: _start:s0_x <- $x31
	#DEBUG_VALUE: _start:G_M2 <- 30000
	#DEBUG_VALUE: _start:G_M1 <- 30000
	#DEBUG_VALUE: _start:G_M0 <- 150000
	#DEBUG_VALUE: _start:max_y_bounds <- 118784
	#DEBUG_VALUE: _start:max_x_bounds <- 159744
	#DEBUG_VALUE: _start:ONE <- 256
	#DEBUG_VALUE: _start:FRACTION_BITS <- 8
	.loc	0 45 12                         # program.c:45:12
	bltz	a0, .LBB0_86
.Ltmp228:
# %bb.85:                               #   in Loop: Header=BB0_2 Depth=1
	#DEBUG_VALUE: _start:s1_vy <- $x25
	#DEBUG_VALUE: _start:s1_vx <- $x19
	#DEBUG_VALUE: _start:s0_vy <- $x21
	#DEBUG_VALUE: _start:s0_vx <- $x26
	#DEBUG_VALUE: dy <- $x11
	#DEBUG_VALUE: dx <- $x15
	#DEBUG_VALUE: _start:s0_y <- [DW_OP_plus_uconst 76] [$x2+0]
	#DEBUG_VALUE: _start:s1_y <- [DW_OP_plus_uconst 68] [$x2+0]
	#DEBUG_VALUE: _start:s1_x <- [DW_OP_plus_uconst 64] [$x2+0]
	#DEBUG_VALUE: _start:s2_vy <- $x27
	#DEBUG_VALUE: _start:s2_vx <- $x24
	#DEBUG_VALUE: _start:s2_y <- $x23
	#DEBUG_VALUE: _start:s2_x <- [DW_OP_plus_uconst 88] [$x2+0]
	#DEBUG_VALUE: _start:s0_x <- $x31
	#DEBUG_VALUE: _start:G_M2 <- 30000
	#DEBUG_VALUE: _start:G_M1 <- 30000
	#DEBUG_VALUE: _start:G_M0 <- 150000
	#DEBUG_VALUE: _start:max_y_bounds <- 118784
	#DEBUG_VALUE: _start:max_x_bounds <- 159744
	#DEBUG_VALUE: _start:ONE <- 256
	#DEBUG_VALUE: _start:FRACTION_BITS <- 8
	.loc	0 0 12 is_stmt 0                # program.c:0:12
	mv	a0, a2
.Ltmp229:
	#DEBUG_VALUE: r_cubed <- $x10
	.loc	0 179 24 is_stmt 1              # program.c:179:24
	srai	a7, a5, 8
.Ltmp230:
	#DEBUG_VALUE: scaled_dx <- $x17
	#DEBUG_VALUE: scaled_dy <- undef
	#DEBUG_VALUE: soft_mul:b <- $x17
	#DEBUG_VALUE: soft_mul:res <- 0
	#DEBUG_VALUE: soft_mul:sign <- 1
	#DEBUG_VALUE: soft_mul:a <- 30000
	.loc	0 38 11                         # program.c:38:11
	xor	a4, a7, a3
	sub	t1, a4, a3
.Ltmp231:
	#DEBUG_VALUE: soft_mul:b <- $x6
	#DEBUG_VALUE: soft_mul:sign <- undef
	#DEBUG_VALUE: soft_mul:ub <- $x6
	#DEBUG_VALUE: soft_mul:ua <- 30000
	.loc	0 0 11 is_stmt 0                # program.c:0:11
	li	a3, 0
.Ltmp232:
	.loc	0 40 5 is_stmt 1                # program.c:40:5
	bnez	a7, .LBB0_87
	j	.LBB0_89
.Ltmp233:
.LBB0_86:                               #   in Loop: Header=BB0_2 Depth=1
	#DEBUG_VALUE: soft_mul:ua <- $x14
	#DEBUG_VALUE: _start:s1_vy <- $x25
	#DEBUG_VALUE: _start:s1_vx <- $x19
	#DEBUG_VALUE: _start:s0_vy <- $x21
	#DEBUG_VALUE: _start:s0_vx <- $x26
	#DEBUG_VALUE: dy <- $x11
	#DEBUG_VALUE: dx <- $x15
	#DEBUG_VALUE: _start:s0_y <- [DW_OP_plus_uconst 76] [$x2+0]
	#DEBUG_VALUE: _start:s1_y <- [DW_OP_plus_uconst 68] [$x2+0]
	#DEBUG_VALUE: _start:s1_x <- [DW_OP_plus_uconst 64] [$x2+0]
	#DEBUG_VALUE: _start:s2_vy <- $x27
	#DEBUG_VALUE: _start:s2_vx <- $x24
	#DEBUG_VALUE: _start:s2_y <- $x23
	#DEBUG_VALUE: _start:s2_x <- [DW_OP_plus_uconst 88] [$x2+0]
	#DEBUG_VALUE: _start:s0_x <- $x31
	#DEBUG_VALUE: _start:G_M2 <- 30000
	#DEBUG_VALUE: _start:G_M1 <- 30000
	#DEBUG_VALUE: _start:G_M0 <- 150000
	#DEBUG_VALUE: _start:max_y_bounds <- 118784
	#DEBUG_VALUE: _start:max_x_bounds <- 159744
	#DEBUG_VALUE: _start:ONE <- 256
	#DEBUG_VALUE: _start:FRACTION_BITS <- 8
	.loc	0 45 12                         # program.c:45:12
	neg	a0, a2
.Ltmp234:
	#DEBUG_VALUE: r_cubed <- $x10
	.loc	0 179 24                        # program.c:179:24
	srai	a7, a5, 8
.Ltmp235:
	#DEBUG_VALUE: scaled_dx <- $x17
	#DEBUG_VALUE: scaled_dy <- undef
	#DEBUG_VALUE: soft_mul:b <- $x17
	#DEBUG_VALUE: soft_mul:res <- 0
	#DEBUG_VALUE: soft_mul:sign <- 1
	#DEBUG_VALUE: soft_mul:a <- 30000
	.loc	0 38 11                         # program.c:38:11
	xor	a4, a7, a3
.Ltmp236:
	sub	t1, a4, a3
.Ltmp237:
	#DEBUG_VALUE: soft_mul:b <- $x6
	#DEBUG_VALUE: soft_mul:sign <- undef
	#DEBUG_VALUE: soft_mul:ub <- $x6
	#DEBUG_VALUE: soft_mul:ua <- 30000
	.loc	0 0 11 is_stmt 0                # program.c:0:11
	li	a3, 0
.Ltmp238:
	.loc	0 40 5 is_stmt 1                # program.c:40:5
	beqz	a7, .LBB0_89
.Ltmp239:
.LBB0_87:                               #   in Loop: Header=BB0_2 Depth=1
	#DEBUG_VALUE: soft_mul:ua <- 30000
	#DEBUG_VALUE: soft_mul:ub <- $x6
	#DEBUG_VALUE: soft_mul:b <- $x6
	#DEBUG_VALUE: soft_mul:a <- 30000
	#DEBUG_VALUE: soft_mul:res <- 0
	#DEBUG_VALUE: scaled_dx <- $x17
	#DEBUG_VALUE: _start:s1_vy <- $x25
	#DEBUG_VALUE: _start:s1_vx <- $x19
	#DEBUG_VALUE: _start:s0_vy <- $x21
	#DEBUG_VALUE: _start:s0_vx <- $x26
	#DEBUG_VALUE: dy <- $x11
	#DEBUG_VALUE: dx <- $x15
	#DEBUG_VALUE: _start:s0_y <- [DW_OP_plus_uconst 76] [$x2+0]
	#DEBUG_VALUE: _start:s1_y <- [DW_OP_plus_uconst 68] [$x2+0]
	#DEBUG_VALUE: _start:s1_x <- [DW_OP_plus_uconst 64] [$x2+0]
	#DEBUG_VALUE: r_cubed <- $x10
	#DEBUG_VALUE: _start:s2_vy <- $x27
	#DEBUG_VALUE: _start:s2_vx <- $x24
	#DEBUG_VALUE: _start:s2_y <- $x23
	#DEBUG_VALUE: _start:s2_x <- [DW_OP_plus_uconst 88] [$x2+0]
	#DEBUG_VALUE: _start:s0_x <- $x31
	#DEBUG_VALUE: _start:G_M2 <- 30000
	#DEBUG_VALUE: _start:G_M1 <- 30000
	#DEBUG_VALUE: _start:G_M0 <- 150000
	#DEBUG_VALUE: _start:max_y_bounds <- 118784
	#DEBUG_VALUE: _start:max_x_bounds <- 159744
	#DEBUG_VALUE: _start:ONE <- 256
	#DEBUG_VALUE: _start:FRACTION_BITS <- 8
	.loc	0 0 5 is_stmt 0                 # program.c:0:5
	addi	a4, ra, 1328
	mv	a6, t1
.Ltmp240:
.LBB0_88:                               #   Parent Loop BB0_2 Depth=1
                                        # =>  This Inner Loop Header: Depth=2
	#DEBUG_VALUE: soft_mul:b <- $x6
	#DEBUG_VALUE: soft_mul:a <- 30000
	#DEBUG_VALUE: scaled_dx <- $x17
	#DEBUG_VALUE: _start:s1_vy <- $x25
	#DEBUG_VALUE: _start:s1_vx <- $x19
	#DEBUG_VALUE: _start:s0_vy <- $x21
	#DEBUG_VALUE: _start:s0_vx <- $x26
	#DEBUG_VALUE: dy <- $x11
	#DEBUG_VALUE: dx <- $x15
	#DEBUG_VALUE: _start:s0_y <- [DW_OP_plus_uconst 76] [$x2+0]
	#DEBUG_VALUE: _start:s1_y <- [DW_OP_plus_uconst 68] [$x2+0]
	#DEBUG_VALUE: _start:s1_x <- [DW_OP_plus_uconst 64] [$x2+0]
	#DEBUG_VALUE: r_cubed <- $x10
	#DEBUG_VALUE: _start:s2_vy <- $x27
	#DEBUG_VALUE: _start:s2_vx <- $x24
	#DEBUG_VALUE: _start:s2_y <- $x23
	#DEBUG_VALUE: _start:s2_x <- [DW_OP_plus_uconst 88] [$x2+0]
	#DEBUG_VALUE: _start:s0_x <- $x31
	#DEBUG_VALUE: _start:G_M2 <- 30000
	#DEBUG_VALUE: _start:G_M1 <- 30000
	#DEBUG_VALUE: _start:G_M0 <- 150000
	#DEBUG_VALUE: _start:max_y_bounds <- 118784
	#DEBUG_VALUE: _start:max_x_bounds <- 159744
	#DEBUG_VALUE: _start:ONE <- 256
	#DEBUG_VALUE: _start:FRACTION_BITS <- 8
	#DEBUG_VALUE: soft_mul:res <- $x13
	#DEBUG_VALUE: soft_mul:ub <- $x16
	#DEBUG_VALUE: soft_mul:ua <- $x14
	.loc	0 41 16 is_stmt 1               # program.c:41:16
	slli	t0, a6, 31
.Ltmp241:
	.loc	0 43 12                         # program.c:43:12
	srli	a6, a6, 1
.Ltmp242:
	#DEBUG_VALUE: soft_mul:ub <- $x16
	.loc	0 41 16                         # program.c:41:16
	srai	t0, t0, 31
	and	t0, t0, a4
	add	a3, t0, a3
.Ltmp243:
	#DEBUG_VALUE: soft_mul:res <- $x13
	.loc	0 42 12                         # program.c:42:12
	slli	a4, a4, 1
.Ltmp244:
	#DEBUG_VALUE: soft_mul:ua <- $x14
	.loc	0 40 5                          # program.c:40:5
	bnez	a6, .LBB0_88
.Ltmp245:
.LBB0_89:                               #   in Loop: Header=BB0_2 Depth=1
	#DEBUG_VALUE: scaled_dx <- $x17
	#DEBUG_VALUE: _start:s1_vy <- $x25
	#DEBUG_VALUE: _start:s1_vx <- $x19
	#DEBUG_VALUE: _start:s0_vy <- $x21
	#DEBUG_VALUE: _start:s0_vx <- $x26
	#DEBUG_VALUE: dy <- $x11
	#DEBUG_VALUE: dx <- $x15
	#DEBUG_VALUE: _start:s0_y <- [DW_OP_plus_uconst 76] [$x2+0]
	#DEBUG_VALUE: _start:s1_y <- [DW_OP_plus_uconst 68] [$x2+0]
	#DEBUG_VALUE: _start:s1_x <- [DW_OP_plus_uconst 64] [$x2+0]
	#DEBUG_VALUE: r_cubed <- $x10
	#DEBUG_VALUE: _start:s2_vy <- $x27
	#DEBUG_VALUE: _start:s2_vx <- $x24
	#DEBUG_VALUE: _start:s2_y <- $x23
	#DEBUG_VALUE: _start:s2_x <- [DW_OP_plus_uconst 88] [$x2+0]
	#DEBUG_VALUE: _start:s0_x <- $x31
	#DEBUG_VALUE: _start:G_M2 <- 30000
	#DEBUG_VALUE: _start:G_M1 <- 30000
	#DEBUG_VALUE: _start:G_M0 <- 150000
	#DEBUG_VALUE: _start:max_y_bounds <- 118784
	#DEBUG_VALUE: _start:max_x_bounds <- 159744
	#DEBUG_VALUE: _start:ONE <- 256
	#DEBUG_VALUE: _start:FRACTION_BITS <- 8
	#DEBUG_VALUE: scaled_dy <- undef
	#DEBUG_VALUE: soft_div:num <- undef
	.loc	0 0 5 is_stmt 0                 # program.c:0:5
	srai	a4, a2, 31
.Ltmp246:
	#DEBUG_VALUE: soft_div:den <- $x10
	.loc	0 50 13 is_stmt 1               # program.c:50:13
	beqz	a0, .LBB0_94
.Ltmp247:
# %bb.90:                               #   in Loop: Header=BB0_2 Depth=1
	#DEBUG_VALUE: scaled_dx <- $x17
	#DEBUG_VALUE: _start:s1_vy <- $x25
	#DEBUG_VALUE: _start:s1_vx <- $x19
	#DEBUG_VALUE: _start:s0_vy <- $x21
	#DEBUG_VALUE: _start:s0_vx <- $x26
	#DEBUG_VALUE: dy <- $x11
	#DEBUG_VALUE: dx <- $x15
	#DEBUG_VALUE: _start:s0_y <- [DW_OP_plus_uconst 76] [$x2+0]
	#DEBUG_VALUE: _start:s1_y <- [DW_OP_plus_uconst 68] [$x2+0]
	#DEBUG_VALUE: _start:s1_x <- [DW_OP_plus_uconst 64] [$x2+0]
	#DEBUG_VALUE: r_cubed <- $x10
	#DEBUG_VALUE: _start:s2_vy <- $x27
	#DEBUG_VALUE: _start:s2_vx <- $x24
	#DEBUG_VALUE: _start:s2_y <- $x23
	#DEBUG_VALUE: _start:s2_x <- [DW_OP_plus_uconst 88] [$x2+0]
	#DEBUG_VALUE: _start:s0_x <- $x31
	#DEBUG_VALUE: _start:G_M2 <- 30000
	#DEBUG_VALUE: _start:G_M1 <- 30000
	#DEBUG_VALUE: _start:G_M0 <- 150000
	#DEBUG_VALUE: _start:max_y_bounds <- 118784
	#DEBUG_VALUE: _start:max_x_bounds <- 159744
	#DEBUG_VALUE: _start:ONE <- 256
	#DEBUG_VALUE: _start:FRACTION_BITS <- 8
	.loc	0 0 13 is_stmt 0                # program.c:0:13
	mv	a6, a3
.Ltmp248:
	.loc	0 45 12 is_stmt 1               # program.c:45:12
	bgez	a7, .LBB0_92
.Ltmp249:
# %bb.91:                               #   in Loop: Header=BB0_2 Depth=1
	#DEBUG_VALUE: scaled_dx <- $x17
	#DEBUG_VALUE: _start:s1_vy <- $x25
	#DEBUG_VALUE: _start:s1_vx <- $x19
	#DEBUG_VALUE: _start:s0_vy <- $x21
	#DEBUG_VALUE: _start:s0_vx <- $x26
	#DEBUG_VALUE: dy <- $x11
	#DEBUG_VALUE: dx <- $x15
	#DEBUG_VALUE: _start:s0_y <- [DW_OP_plus_uconst 76] [$x2+0]
	#DEBUG_VALUE: _start:s1_y <- [DW_OP_plus_uconst 68] [$x2+0]
	#DEBUG_VALUE: _start:s1_x <- [DW_OP_plus_uconst 64] [$x2+0]
	#DEBUG_VALUE: r_cubed <- $x10
	#DEBUG_VALUE: _start:s2_vy <- $x27
	#DEBUG_VALUE: _start:s2_vx <- $x24
	#DEBUG_VALUE: _start:s2_y <- $x23
	#DEBUG_VALUE: _start:s2_x <- [DW_OP_plus_uconst 88] [$x2+0]
	#DEBUG_VALUE: _start:s0_x <- $x31
	#DEBUG_VALUE: _start:G_M2 <- 30000
	#DEBUG_VALUE: _start:G_M1 <- 30000
	#DEBUG_VALUE: _start:G_M0 <- 150000
	#DEBUG_VALUE: _start:max_y_bounds <- 118784
	#DEBUG_VALUE: _start:max_x_bounds <- 159744
	#DEBUG_VALUE: _start:ONE <- 256
	#DEBUG_VALUE: _start:FRACTION_BITS <- 8
	.loc	0 0 12 is_stmt 0                # program.c:0:12
	neg	a6, a3
.Ltmp250:
.LBB0_92:                               #   in Loop: Header=BB0_2 Depth=1
	#DEBUG_VALUE: scaled_dx <- $x17
	#DEBUG_VALUE: _start:s1_vy <- $x25
	#DEBUG_VALUE: _start:s1_vx <- $x19
	#DEBUG_VALUE: _start:s0_vy <- $x21
	#DEBUG_VALUE: _start:s0_vx <- $x26
	#DEBUG_VALUE: dy <- $x11
	#DEBUG_VALUE: dx <- $x15
	#DEBUG_VALUE: _start:s0_y <- [DW_OP_plus_uconst 76] [$x2+0]
	#DEBUG_VALUE: _start:s1_y <- [DW_OP_plus_uconst 68] [$x2+0]
	#DEBUG_VALUE: _start:s1_x <- [DW_OP_plus_uconst 64] [$x2+0]
	#DEBUG_VALUE: r_cubed <- $x10
	#DEBUG_VALUE: _start:s2_vy <- $x27
	#DEBUG_VALUE: _start:s2_vx <- $x24
	#DEBUG_VALUE: _start:s2_y <- $x23
	#DEBUG_VALUE: _start:s2_x <- [DW_OP_plus_uconst 88] [$x2+0]
	#DEBUG_VALUE: _start:s0_x <- $x31
	#DEBUG_VALUE: _start:G_M2 <- 30000
	#DEBUG_VALUE: _start:G_M1 <- 30000
	#DEBUG_VALUE: _start:G_M0 <- 150000
	#DEBUG_VALUE: _start:max_y_bounds <- 118784
	#DEBUG_VALUE: _start:max_x_bounds <- 159744
	#DEBUG_VALUE: _start:ONE <- 256
	#DEBUG_VALUE: _start:FRACTION_BITS <- 8
	#DEBUG_VALUE: soft_div:num <- $x16
	#DEBUG_VALUE: soft_div:sign <- 1
	.loc	0 52 13 is_stmt 1               # program.c:52:13
	srai	t0, a3, 31
	xor	a3, a3, t0
	sub	t0, a3, t0
.Ltmp251:
	#DEBUG_VALUE: soft_div:num <- $x5
	#DEBUG_VALUE: soft_div:sign <- undef
	#DEBUG_VALUE: soft_div:n <- $x5
	.loc	0 53 13                         # program.c:53:13
	xor	a3, a2, a4
	sub	t3, a3, a4
.Ltmp252:
	#DEBUG_VALUE: soft_div:den <- $x28
	#DEBUG_VALUE: soft_div:d <- $x28
	#DEBUG_VALUE: soft_div:res <- 0
	#DEBUG_VALUE: soft_div:current <- 1
	.loc	0 60 5                          # program.c:60:5
	bgeu	t0, t3, .LBB0_95
.Ltmp253:
# %bb.93:                               #   in Loop: Header=BB0_2 Depth=1
	#DEBUG_VALUE: soft_div:current <- 1
	#DEBUG_VALUE: soft_div:res <- 0
	#DEBUG_VALUE: soft_div:d <- $x28
	#DEBUG_VALUE: soft_div:den <- $x28
	#DEBUG_VALUE: soft_div:n <- $x5
	#DEBUG_VALUE: soft_div:num <- $x5
	#DEBUG_VALUE: scaled_dx <- $x17
	#DEBUG_VALUE: _start:s1_vy <- $x25
	#DEBUG_VALUE: _start:s1_vx <- $x19
	#DEBUG_VALUE: _start:s0_vy <- $x21
	#DEBUG_VALUE: _start:s0_vx <- $x26
	#DEBUG_VALUE: dy <- $x11
	#DEBUG_VALUE: dx <- $x15
	#DEBUG_VALUE: _start:s0_y <- [DW_OP_plus_uconst 76] [$x2+0]
	#DEBUG_VALUE: _start:s1_y <- [DW_OP_plus_uconst 68] [$x2+0]
	#DEBUG_VALUE: _start:s1_x <- [DW_OP_plus_uconst 64] [$x2+0]
	#DEBUG_VALUE: r_cubed <- $x10
	#DEBUG_VALUE: _start:s2_vy <- $x27
	#DEBUG_VALUE: _start:s2_vx <- $x24
	#DEBUG_VALUE: _start:s2_y <- $x23
	#DEBUG_VALUE: _start:s2_x <- [DW_OP_plus_uconst 88] [$x2+0]
	#DEBUG_VALUE: _start:s0_x <- $x31
	#DEBUG_VALUE: _start:G_M2 <- 30000
	#DEBUG_VALUE: _start:G_M1 <- 30000
	#DEBUG_VALUE: _start:G_M0 <- 150000
	#DEBUG_VALUE: _start:max_y_bounds <- 118784
	#DEBUG_VALUE: _start:max_x_bounds <- 159744
	#DEBUG_VALUE: _start:ONE <- 256
	#DEBUG_VALUE: _start:FRACTION_BITS <- 8
	.loc	0 0 5 is_stmt 0                 # program.c:0:5
	li	a3, 1
	.loc	0 60 5                          # program.c:60:5
	j	.LBB0_97
.Ltmp254:
.LBB0_94:                               #   in Loop: Header=BB0_2 Depth=1
	#DEBUG_VALUE: soft_div:den <- $x10
	#DEBUG_VALUE: scaled_dx <- $x17
	#DEBUG_VALUE: _start:s1_vy <- $x25
	#DEBUG_VALUE: _start:s1_vx <- $x19
	#DEBUG_VALUE: _start:s0_vy <- $x21
	#DEBUG_VALUE: _start:s0_vx <- $x26
	#DEBUG_VALUE: dy <- $x11
	#DEBUG_VALUE: dx <- $x15
	#DEBUG_VALUE: _start:s0_y <- [DW_OP_plus_uconst 76] [$x2+0]
	#DEBUG_VALUE: _start:s1_y <- [DW_OP_plus_uconst 68] [$x2+0]
	#DEBUG_VALUE: _start:s1_x <- [DW_OP_plus_uconst 64] [$x2+0]
	#DEBUG_VALUE: r_cubed <- $x10
	#DEBUG_VALUE: _start:s2_vy <- $x27
	#DEBUG_VALUE: _start:s2_vx <- $x24
	#DEBUG_VALUE: _start:s2_y <- $x23
	#DEBUG_VALUE: _start:s2_x <- [DW_OP_plus_uconst 88] [$x2+0]
	#DEBUG_VALUE: _start:s0_x <- $x31
	#DEBUG_VALUE: _start:G_M2 <- 30000
	#DEBUG_VALUE: _start:G_M1 <- 30000
	#DEBUG_VALUE: _start:G_M0 <- 150000
	#DEBUG_VALUE: _start:max_y_bounds <- 118784
	#DEBUG_VALUE: _start:max_x_bounds <- 159744
	#DEBUG_VALUE: _start:ONE <- 256
	#DEBUG_VALUE: _start:FRACTION_BITS <- 8
	.loc	0 0 5                           # program.c:0:5
	li	a3, 0
.Ltmp255:
	.loc	0 50 13 is_stmt 1               # program.c:50:13
	j	.LBB0_102
.Ltmp256:
.LBB0_95:                               #   in Loop: Header=BB0_2 Depth=1
	#DEBUG_VALUE: soft_div:current <- 1
	#DEBUG_VALUE: soft_div:res <- 0
	#DEBUG_VALUE: soft_div:d <- $x28
	#DEBUG_VALUE: soft_div:den <- $x28
	#DEBUG_VALUE: soft_div:n <- $x5
	#DEBUG_VALUE: soft_div:num <- $x5
	#DEBUG_VALUE: scaled_dx <- $x17
	#DEBUG_VALUE: _start:s1_vy <- $x25
	#DEBUG_VALUE: _start:s1_vx <- $x19
	#DEBUG_VALUE: _start:s0_vy <- $x21
	#DEBUG_VALUE: _start:s0_vx <- $x26
	#DEBUG_VALUE: dy <- $x11
	#DEBUG_VALUE: dx <- $x15
	#DEBUG_VALUE: _start:s0_y <- [DW_OP_plus_uconst 76] [$x2+0]
	#DEBUG_VALUE: _start:s1_y <- [DW_OP_plus_uconst 68] [$x2+0]
	#DEBUG_VALUE: _start:s1_x <- [DW_OP_plus_uconst 64] [$x2+0]
	#DEBUG_VALUE: r_cubed <- $x10
	#DEBUG_VALUE: _start:s2_vy <- $x27
	#DEBUG_VALUE: _start:s2_vx <- $x24
	#DEBUG_VALUE: _start:s2_y <- $x23
	#DEBUG_VALUE: _start:s2_x <- [DW_OP_plus_uconst 88] [$x2+0]
	#DEBUG_VALUE: _start:s0_x <- $x31
	#DEBUG_VALUE: _start:G_M2 <- 30000
	#DEBUG_VALUE: _start:G_M1 <- 30000
	#DEBUG_VALUE: _start:G_M0 <- 150000
	#DEBUG_VALUE: _start:max_y_bounds <- 118784
	#DEBUG_VALUE: _start:max_x_bounds <- 159744
	#DEBUG_VALUE: _start:ONE <- 256
	#DEBUG_VALUE: _start:FRACTION_BITS <- 8
	.loc	0 0 13 is_stmt 0                # program.c:0:13
	li	a3, 1
.Ltmp257:
.LBB0_96:                               #   Parent Loop BB0_2 Depth=1
                                        # =>  This Inner Loop Header: Depth=2
	#DEBUG_VALUE: soft_div:res <- 0
	#DEBUG_VALUE: soft_div:d <- $x28
	#DEBUG_VALUE: soft_div:n <- $x5
	#DEBUG_VALUE: soft_div:num <- $x5
	#DEBUG_VALUE: scaled_dx <- $x17
	#DEBUG_VALUE: _start:s1_vy <- $x25
	#DEBUG_VALUE: _start:s1_vx <- $x19
	#DEBUG_VALUE: _start:s0_vy <- $x21
	#DEBUG_VALUE: _start:s0_vx <- $x26
	#DEBUG_VALUE: dy <- $x11
	#DEBUG_VALUE: dx <- $x15
	#DEBUG_VALUE: _start:s0_y <- [DW_OP_plus_uconst 76] [$x2+0]
	#DEBUG_VALUE: _start:s1_y <- [DW_OP_plus_uconst 68] [$x2+0]
	#DEBUG_VALUE: _start:s1_x <- [DW_OP_plus_uconst 64] [$x2+0]
	#DEBUG_VALUE: r_cubed <- $x10
	#DEBUG_VALUE: _start:s2_vy <- $x27
	#DEBUG_VALUE: _start:s2_vx <- $x24
	#DEBUG_VALUE: _start:s2_y <- $x23
	#DEBUG_VALUE: _start:s2_x <- [DW_OP_plus_uconst 88] [$x2+0]
	#DEBUG_VALUE: _start:s0_x <- $x31
	#DEBUG_VALUE: _start:G_M2 <- 30000
	#DEBUG_VALUE: _start:G_M1 <- 30000
	#DEBUG_VALUE: _start:G_M0 <- 150000
	#DEBUG_VALUE: _start:max_y_bounds <- 118784
	#DEBUG_VALUE: _start:max_x_bounds <- 159744
	#DEBUG_VALUE: _start:ONE <- 256
	#DEBUG_VALUE: _start:FRACTION_BITS <- 8
	#DEBUG_VALUE: soft_div:d <- $x28
	#DEBUG_VALUE: soft_div:current <- $x13
	.loc	0 61 11 is_stmt 1               # program.c:61:11
	slli	t3, t3, 1
.Ltmp258:
	#DEBUG_VALUE: soft_div:d <- $x28
	.loc	0 62 17                         # program.c:62:17
	slli	a3, a3, 1
.Ltmp259:
	#DEBUG_VALUE: soft_div:current <- $x13
	.loc	0 60 5                          # program.c:60:5
	bgeu	t0, t3, .LBB0_96
.Ltmp260:
.LBB0_97:                               #   in Loop: Header=BB0_2 Depth=1
	#DEBUG_VALUE: soft_div:res <- 0
	#DEBUG_VALUE: soft_div:d <- $x28
	#DEBUG_VALUE: soft_div:n <- $x5
	#DEBUG_VALUE: soft_div:num <- $x5
	#DEBUG_VALUE: scaled_dx <- $x17
	#DEBUG_VALUE: _start:s1_vy <- $x25
	#DEBUG_VALUE: _start:s1_vx <- $x19
	#DEBUG_VALUE: _start:s0_vy <- $x21
	#DEBUG_VALUE: _start:s0_vx <- $x26
	#DEBUG_VALUE: dy <- $x11
	#DEBUG_VALUE: dx <- $x15
	#DEBUG_VALUE: _start:s0_y <- [DW_OP_plus_uconst 76] [$x2+0]
	#DEBUG_VALUE: _start:s1_y <- [DW_OP_plus_uconst 68] [$x2+0]
	#DEBUG_VALUE: _start:s1_x <- [DW_OP_plus_uconst 64] [$x2+0]
	#DEBUG_VALUE: r_cubed <- $x10
	#DEBUG_VALUE: _start:s2_vy <- $x27
	#DEBUG_VALUE: _start:s2_vx <- $x24
	#DEBUG_VALUE: _start:s2_y <- $x23
	#DEBUG_VALUE: _start:s2_x <- [DW_OP_plus_uconst 88] [$x2+0]
	#DEBUG_VALUE: _start:s0_x <- $x31
	#DEBUG_VALUE: _start:G_M2 <- 30000
	#DEBUG_VALUE: _start:G_M1 <- 30000
	#DEBUG_VALUE: _start:G_M0 <- 150000
	#DEBUG_VALUE: _start:max_y_bounds <- 118784
	#DEBUG_VALUE: _start:max_x_bounds <- 159744
	#DEBUG_VALUE: _start:ONE <- 256
	#DEBUG_VALUE: _start:FRACTION_BITS <- 8
	.loc	0 0 5 is_stmt 0                 # program.c:0:5
	sltiu	t2, a3, 2
	xori	t4, t2, 1
.Ltmp261:
	#DEBUG_VALUE: soft_div:d <- [DW_OP_LLVM_arg 0, DW_OP_LLVM_arg 1, DW_OP_shr, DW_OP_stack_value] $x28, $x29
	.loc	0 64 15 is_stmt 1               # program.c:64:15
	srl	t2, a3, t4
.Ltmp262:
	#DEBUG_VALUE: soft_div:n <- $x5
	#DEBUG_VALUE: soft_div:res <- 0
	#DEBUG_VALUE: soft_div:current <- $x7
	.loc	0 69 5                          # program.c:69:5
	beqz	t2, .LBB0_279
.Ltmp263:
# %bb.98:                               #   in Loop: Header=BB0_2 Depth=1
	#DEBUG_VALUE: soft_div:current <- $x7
	#DEBUG_VALUE: soft_div:d <- [DW_OP_LLVM_arg 0, DW_OP_LLVM_arg 1, DW_OP_shr, DW_OP_stack_value] $x28, $x29
	#DEBUG_VALUE: soft_div:res <- 0
	#DEBUG_VALUE: soft_div:n <- $x5
	#DEBUG_VALUE: soft_div:num <- $x5
	#DEBUG_VALUE: scaled_dx <- $x17
	#DEBUG_VALUE: _start:s1_vy <- $x25
	#DEBUG_VALUE: _start:s1_vx <- $x19
	#DEBUG_VALUE: _start:s0_vy <- $x21
	#DEBUG_VALUE: _start:s0_vx <- $x26
	#DEBUG_VALUE: dy <- $x11
	#DEBUG_VALUE: dx <- $x15
	#DEBUG_VALUE: _start:s0_y <- [DW_OP_plus_uconst 76] [$x2+0]
	#DEBUG_VALUE: _start:s1_y <- [DW_OP_plus_uconst 68] [$x2+0]
	#DEBUG_VALUE: _start:s1_x <- [DW_OP_plus_uconst 64] [$x2+0]
	#DEBUG_VALUE: r_cubed <- $x10
	#DEBUG_VALUE: _start:s2_vy <- $x27
	#DEBUG_VALUE: _start:s2_vx <- $x24
	#DEBUG_VALUE: _start:s2_y <- $x23
	#DEBUG_VALUE: _start:s2_x <- [DW_OP_plus_uconst 88] [$x2+0]
	#DEBUG_VALUE: _start:s0_x <- $x31
	#DEBUG_VALUE: _start:G_M2 <- 30000
	#DEBUG_VALUE: _start:G_M1 <- 30000
	#DEBUG_VALUE: _start:G_M0 <- 150000
	#DEBUG_VALUE: _start:max_y_bounds <- 118784
	#DEBUG_VALUE: _start:max_x_bounds <- 159744
	#DEBUG_VALUE: _start:ONE <- 256
	#DEBUG_VALUE: _start:FRACTION_BITS <- 8
	.loc	0 0 5 is_stmt 0                 # program.c:0:5
	li	a3, 0
.Ltmp264:
	.loc	0 64 15 is_stmt 1               # program.c:64:15
	srl	t3, t3, t4
.Ltmp265:
	#DEBUG_VALUE: soft_div:d <- $x28
.LBB0_99:                               #   Parent Loop BB0_2 Depth=1
                                        # =>  This Inner Loop Header: Depth=2
	#DEBUG_VALUE: soft_div:current <- $x7
	#DEBUG_VALUE: soft_div:d <- $x28
	#DEBUG_VALUE: soft_div:n <- $x5
	#DEBUG_VALUE: scaled_dx <- $x17
	#DEBUG_VALUE: _start:s1_vy <- $x25
	#DEBUG_VALUE: _start:s1_vx <- $x19
	#DEBUG_VALUE: _start:s0_vy <- $x21
	#DEBUG_VALUE: _start:s0_vx <- $x26
	#DEBUG_VALUE: dy <- $x11
	#DEBUG_VALUE: dx <- $x15
	#DEBUG_VALUE: _start:s0_y <- [DW_OP_plus_uconst 76] [$x2+0]
	#DEBUG_VALUE: _start:s1_y <- [DW_OP_plus_uconst 68] [$x2+0]
	#DEBUG_VALUE: _start:s1_x <- [DW_OP_plus_uconst 64] [$x2+0]
	#DEBUG_VALUE: r_cubed <- $x10
	#DEBUG_VALUE: _start:s2_vy <- $x27
	#DEBUG_VALUE: _start:s2_vx <- $x24
	#DEBUG_VALUE: _start:s2_y <- $x23
	#DEBUG_VALUE: _start:s2_x <- [DW_OP_plus_uconst 88] [$x2+0]
	#DEBUG_VALUE: _start:s0_x <- $x31
	#DEBUG_VALUE: _start:G_M2 <- 30000
	#DEBUG_VALUE: _start:G_M1 <- 30000
	#DEBUG_VALUE: _start:G_M0 <- 150000
	#DEBUG_VALUE: _start:max_y_bounds <- 118784
	#DEBUG_VALUE: _start:max_x_bounds <- 159744
	#DEBUG_VALUE: _start:ONE <- 256
	#DEBUG_VALUE: _start:FRACTION_BITS <- 8
	#DEBUG_VALUE: soft_div:n <- $x5
	#DEBUG_VALUE: soft_div:d <- $x28
	#DEBUG_VALUE: soft_div:res <- $x13
	#DEBUG_VALUE: soft_div:current <- $x7
	.loc	0 70 15                         # program.c:70:15
	sltu	t4, t0, t3
	addi	t4, t4, -1
	and	t5, t4, t3
	and	t4, t4, t2
.Ltmp266:
	.loc	0 74 17                         # program.c:74:17
	srli	t2, t2, 1
.Ltmp267:
	#DEBUG_VALUE: soft_div:current <- $x7
	.loc	0 70 15                         # program.c:70:15
	sub	t0, t0, t5
.Ltmp268:
	or	a3, t4, a3
.Ltmp269:
	#DEBUG_VALUE: soft_div:res <- $x13
	#DEBUG_VALUE: soft_div:n <- $x5
	.loc	0 75 11                         # program.c:75:11
	srli	t3, t3, 1
.Ltmp270:
	#DEBUG_VALUE: soft_div:d <- $x28
	.loc	0 69 5                          # program.c:69:5
	bnez	t2, .LBB0_99
.Ltmp271:
# %bb.100:                              #   in Loop: Header=BB0_2 Depth=1
	#DEBUG_VALUE: soft_div:res <- $x13
	#DEBUG_VALUE: soft_div:current <- $x7
	#DEBUG_VALUE: soft_div:d <- $x28
	#DEBUG_VALUE: soft_div:n <- $x5
	#DEBUG_VALUE: scaled_dx <- $x17
	#DEBUG_VALUE: _start:s1_vy <- $x25
	#DEBUG_VALUE: _start:s1_vx <- $x19
	#DEBUG_VALUE: _start:s0_vy <- $x21
	#DEBUG_VALUE: _start:s0_vx <- $x26
	#DEBUG_VALUE: dy <- $x11
	#DEBUG_VALUE: dx <- $x15
	#DEBUG_VALUE: _start:s0_y <- [DW_OP_plus_uconst 76] [$x2+0]
	#DEBUG_VALUE: _start:s1_y <- [DW_OP_plus_uconst 68] [$x2+0]
	#DEBUG_VALUE: _start:s1_x <- [DW_OP_plus_uconst 64] [$x2+0]
	#DEBUG_VALUE: r_cubed <- $x10
	#DEBUG_VALUE: _start:s2_vy <- $x27
	#DEBUG_VALUE: _start:s2_vx <- $x24
	#DEBUG_VALUE: _start:s2_y <- $x23
	#DEBUG_VALUE: _start:s2_x <- [DW_OP_plus_uconst 88] [$x2+0]
	#DEBUG_VALUE: _start:s0_x <- $x31
	#DEBUG_VALUE: _start:G_M2 <- 30000
	#DEBUG_VALUE: _start:G_M1 <- 30000
	#DEBUG_VALUE: _start:G_M0 <- 150000
	#DEBUG_VALUE: _start:max_y_bounds <- 118784
	#DEBUG_VALUE: _start:max_x_bounds <- 159744
	#DEBUG_VALUE: _start:ONE <- 256
	#DEBUG_VALUE: _start:FRACTION_BITS <- 8
	.loc	0 77 18                         # program.c:77:18
	xor	a6, a6, a0
	.loc	0 77 12 is_stmt 0               # program.c:77:12
	bgez	a6, .LBB0_102
.Ltmp272:
.LBB0_101:                              #   in Loop: Header=BB0_2 Depth=1
	#DEBUG_VALUE: soft_div:current <- $x7
	#DEBUG_VALUE: soft_div:n <- $x5
	#DEBUG_VALUE: scaled_dx <- $x17
	#DEBUG_VALUE: _start:s1_vy <- $x25
	#DEBUG_VALUE: _start:s1_vx <- $x19
	#DEBUG_VALUE: _start:s0_vy <- $x21
	#DEBUG_VALUE: _start:s0_vx <- $x26
	#DEBUG_VALUE: dy <- $x11
	#DEBUG_VALUE: dx <- $x15
	#DEBUG_VALUE: _start:s0_y <- [DW_OP_plus_uconst 76] [$x2+0]
	#DEBUG_VALUE: _start:s1_y <- [DW_OP_plus_uconst 68] [$x2+0]
	#DEBUG_VALUE: _start:s1_x <- [DW_OP_plus_uconst 64] [$x2+0]
	#DEBUG_VALUE: r_cubed <- $x10
	#DEBUG_VALUE: _start:s2_vy <- $x27
	#DEBUG_VALUE: _start:s2_vx <- $x24
	#DEBUG_VALUE: _start:s2_y <- $x23
	#DEBUG_VALUE: _start:s2_x <- [DW_OP_plus_uconst 88] [$x2+0]
	#DEBUG_VALUE: _start:s0_x <- $x31
	#DEBUG_VALUE: _start:G_M2 <- 30000
	#DEBUG_VALUE: _start:G_M1 <- 30000
	#DEBUG_VALUE: _start:G_M0 <- 150000
	#DEBUG_VALUE: _start:max_y_bounds <- 118784
	#DEBUG_VALUE: _start:max_x_bounds <- 159744
	#DEBUG_VALUE: _start:ONE <- 256
	#DEBUG_VALUE: _start:FRACTION_BITS <- 8
	neg	a3, a3
.Ltmp273:
.LBB0_102:                              #   in Loop: Header=BB0_2 Depth=1
	#DEBUG_VALUE: scaled_dx <- $x17
	#DEBUG_VALUE: _start:s1_vy <- $x25
	#DEBUG_VALUE: _start:s1_vx <- $x19
	#DEBUG_VALUE: _start:s0_vy <- $x21
	#DEBUG_VALUE: _start:s0_vx <- $x26
	#DEBUG_VALUE: dy <- $x11
	#DEBUG_VALUE: dx <- $x15
	#DEBUG_VALUE: _start:s0_y <- [DW_OP_plus_uconst 76] [$x2+0]
	#DEBUG_VALUE: _start:s1_y <- [DW_OP_plus_uconst 68] [$x2+0]
	#DEBUG_VALUE: _start:s1_x <- [DW_OP_plus_uconst 64] [$x2+0]
	#DEBUG_VALUE: r_cubed <- $x10
	#DEBUG_VALUE: _start:s2_vy <- $x27
	#DEBUG_VALUE: _start:s2_vx <- $x24
	#DEBUG_VALUE: _start:s2_y <- $x23
	#DEBUG_VALUE: _start:s2_x <- [DW_OP_plus_uconst 88] [$x2+0]
	#DEBUG_VALUE: _start:s0_x <- $x31
	#DEBUG_VALUE: _start:G_M2 <- 30000
	#DEBUG_VALUE: _start:G_M1 <- 30000
	#DEBUG_VALUE: _start:G_M0 <- 150000
	#DEBUG_VALUE: _start:max_y_bounds <- 118784
	#DEBUG_VALUE: _start:max_x_bounds <- 159744
	#DEBUG_VALUE: _start:ONE <- 256
	#DEBUG_VALUE: _start:FRACTION_BITS <- 8
	.loc	0 0 0                           # program.c:0:0
	srai	t0, a1, 8
.Ltmp274:
	#DEBUG_VALUE: _start:s0_vx <- undef
	#DEBUG_VALUE: scaled_dy <- $x5
	#DEBUG_VALUE: soft_mul:b <- $x5
	#DEBUG_VALUE: soft_mul:res <- 0
	#DEBUG_VALUE: soft_mul:sign <- 1
	#DEBUG_VALUE: soft_mul:a <- 30000
	.loc	0 38 11 is_stmt 1               # program.c:38:11
	srai	a6, t0, 31
	xor	t2, t0, a6
	sub	t2, t2, a6
.Ltmp275:
	#DEBUG_VALUE: soft_mul:b <- $x7
	#DEBUG_VALUE: soft_mul:sign <- undef
	#DEBUG_VALUE: soft_mul:ub <- $x7
	#DEBUG_VALUE: soft_mul:ua <- 30000
	.loc	0 0 11 is_stmt 0                # program.c:0:11
	li	a6, 0
.Ltmp276:
	.loc	0 40 5 is_stmt 1                # program.c:40:5
	bltu	a1, s2, .LBB0_105
.Ltmp277:
# %bb.103:                              #   in Loop: Header=BB0_2 Depth=1
	#DEBUG_VALUE: soft_mul:ua <- 30000
	#DEBUG_VALUE: soft_mul:ub <- $x7
	#DEBUG_VALUE: soft_mul:b <- $x7
	#DEBUG_VALUE: soft_mul:a <- 30000
	#DEBUG_VALUE: soft_mul:res <- 0
	#DEBUG_VALUE: scaled_dy <- $x5
	#DEBUG_VALUE: scaled_dx <- $x17
	#DEBUG_VALUE: _start:s1_vy <- $x25
	#DEBUG_VALUE: _start:s1_vx <- $x19
	#DEBUG_VALUE: _start:s0_vy <- $x21
	#DEBUG_VALUE: dy <- $x11
	#DEBUG_VALUE: dx <- $x15
	#DEBUG_VALUE: _start:s0_y <- [DW_OP_plus_uconst 76] [$x2+0]
	#DEBUG_VALUE: _start:s1_y <- [DW_OP_plus_uconst 68] [$x2+0]
	#DEBUG_VALUE: _start:s1_x <- [DW_OP_plus_uconst 64] [$x2+0]
	#DEBUG_VALUE: r_cubed <- $x10
	#DEBUG_VALUE: _start:s2_vy <- $x27
	#DEBUG_VALUE: _start:s2_vx <- $x24
	#DEBUG_VALUE: _start:s2_y <- $x23
	#DEBUG_VALUE: _start:s2_x <- [DW_OP_plus_uconst 88] [$x2+0]
	#DEBUG_VALUE: _start:s0_x <- $x31
	#DEBUG_VALUE: _start:G_M2 <- 30000
	#DEBUG_VALUE: _start:G_M1 <- 30000
	#DEBUG_VALUE: _start:G_M0 <- 150000
	#DEBUG_VALUE: _start:max_y_bounds <- 118784
	#DEBUG_VALUE: _start:max_x_bounds <- 159744
	#DEBUG_VALUE: _start:ONE <- 256
	#DEBUG_VALUE: _start:FRACTION_BITS <- 8
	.loc	0 0 5 is_stmt 0                 # program.c:0:5
	addi	t3, ra, 1328
	mv	t4, t2
.Ltmp278:
.LBB0_104:                              #   Parent Loop BB0_2 Depth=1
                                        # =>  This Inner Loop Header: Depth=2
	#DEBUG_VALUE: soft_mul:b <- $x7
	#DEBUG_VALUE: soft_mul:a <- 30000
	#DEBUG_VALUE: scaled_dy <- $x5
	#DEBUG_VALUE: scaled_dx <- $x17
	#DEBUG_VALUE: _start:s1_vy <- $x25
	#DEBUG_VALUE: _start:s1_vx <- $x19
	#DEBUG_VALUE: _start:s0_vy <- $x21
	#DEBUG_VALUE: dy <- $x11
	#DEBUG_VALUE: dx <- $x15
	#DEBUG_VALUE: _start:s0_y <- [DW_OP_plus_uconst 76] [$x2+0]
	#DEBUG_VALUE: _start:s1_y <- [DW_OP_plus_uconst 68] [$x2+0]
	#DEBUG_VALUE: _start:s1_x <- [DW_OP_plus_uconst 64] [$x2+0]
	#DEBUG_VALUE: r_cubed <- $x10
	#DEBUG_VALUE: _start:s2_vy <- $x27
	#DEBUG_VALUE: _start:s2_vx <- $x24
	#DEBUG_VALUE: _start:s2_y <- $x23
	#DEBUG_VALUE: _start:s2_x <- [DW_OP_plus_uconst 88] [$x2+0]
	#DEBUG_VALUE: _start:s0_x <- $x31
	#DEBUG_VALUE: _start:G_M2 <- 30000
	#DEBUG_VALUE: _start:G_M1 <- 30000
	#DEBUG_VALUE: _start:G_M0 <- 150000
	#DEBUG_VALUE: _start:max_y_bounds <- 118784
	#DEBUG_VALUE: _start:max_x_bounds <- 159744
	#DEBUG_VALUE: _start:ONE <- 256
	#DEBUG_VALUE: _start:FRACTION_BITS <- 8
	#DEBUG_VALUE: soft_mul:res <- $x16
	#DEBUG_VALUE: soft_mul:ub <- $x29
	#DEBUG_VALUE: soft_mul:ua <- $x28
	.loc	0 41 16 is_stmt 1               # program.c:41:16
	slli	t5, t4, 31
.Ltmp279:
	.loc	0 43 12                         # program.c:43:12
	srli	t4, t4, 1
.Ltmp280:
	#DEBUG_VALUE: soft_mul:ub <- $x29
	.loc	0 41 16                         # program.c:41:16
	srai	t5, t5, 31
	and	t5, t5, t3
	add	a6, t5, a6
.Ltmp281:
	#DEBUG_VALUE: soft_mul:res <- $x16
	.loc	0 42 12                         # program.c:42:12
	slli	t3, t3, 1
.Ltmp282:
	#DEBUG_VALUE: soft_mul:ua <- $x28
	.loc	0 40 5                          # program.c:40:5
	bnez	t4, .LBB0_104
.Ltmp283:
.LBB0_105:                              #   in Loop: Header=BB0_2 Depth=1
	#DEBUG_VALUE: scaled_dy <- $x5
	#DEBUG_VALUE: scaled_dx <- $x17
	#DEBUG_VALUE: _start:s1_vy <- $x25
	#DEBUG_VALUE: _start:s1_vx <- $x19
	#DEBUG_VALUE: _start:s0_vy <- $x21
	#DEBUG_VALUE: dy <- $x11
	#DEBUG_VALUE: dx <- $x15
	#DEBUG_VALUE: _start:s0_y <- [DW_OP_plus_uconst 76] [$x2+0]
	#DEBUG_VALUE: _start:s1_y <- [DW_OP_plus_uconst 68] [$x2+0]
	#DEBUG_VALUE: _start:s1_x <- [DW_OP_plus_uconst 64] [$x2+0]
	#DEBUG_VALUE: r_cubed <- $x10
	#DEBUG_VALUE: _start:s2_vy <- $x27
	#DEBUG_VALUE: _start:s2_vx <- $x24
	#DEBUG_VALUE: _start:s2_y <- $x23
	#DEBUG_VALUE: _start:s2_x <- [DW_OP_plus_uconst 88] [$x2+0]
	#DEBUG_VALUE: _start:s0_x <- $x31
	#DEBUG_VALUE: _start:G_M2 <- 30000
	#DEBUG_VALUE: _start:G_M1 <- 30000
	#DEBUG_VALUE: _start:G_M0 <- 150000
	#DEBUG_VALUE: _start:max_y_bounds <- 118784
	#DEBUG_VALUE: _start:max_x_bounds <- 159744
	#DEBUG_VALUE: _start:ONE <- 256
	#DEBUG_VALUE: _start:FRACTION_BITS <- 8
	#DEBUG_VALUE: _start:s0_vx <- undef
	#DEBUG_VALUE: soft_div:num <- undef
	#DEBUG_VALUE: soft_div:den <- $x10
	.loc	0 0 5 is_stmt 0                 # program.c:0:5
	sw	t6, 80(sp)                      # 4-byte Folded Spill
.Ltmp284:
	.loc	0 50 13 is_stmt 1               # program.c:50:13
	beqz	a0, .LBB0_110
.Ltmp285:
# %bb.106:                              #   in Loop: Header=BB0_2 Depth=1
	#DEBUG_VALUE: scaled_dy <- $x5
	#DEBUG_VALUE: scaled_dx <- $x17
	#DEBUG_VALUE: _start:s1_vy <- $x25
	#DEBUG_VALUE: _start:s1_vx <- $x19
	#DEBUG_VALUE: _start:s0_vy <- $x21
	#DEBUG_VALUE: dy <- $x11
	#DEBUG_VALUE: dx <- $x15
	#DEBUG_VALUE: _start:s0_y <- [DW_OP_plus_uconst 76] [$x2+0]
	#DEBUG_VALUE: _start:s1_y <- [DW_OP_plus_uconst 68] [$x2+0]
	#DEBUG_VALUE: _start:s1_x <- [DW_OP_plus_uconst 64] [$x2+0]
	#DEBUG_VALUE: r_cubed <- $x10
	#DEBUG_VALUE: _start:s2_vy <- $x27
	#DEBUG_VALUE: _start:s2_vx <- $x24
	#DEBUG_VALUE: _start:s2_y <- $x23
	#DEBUG_VALUE: _start:s2_x <- [DW_OP_plus_uconst 88] [$x2+0]
	#DEBUG_VALUE: _start:s0_x <- $x31
	#DEBUG_VALUE: _start:G_M2 <- 30000
	#DEBUG_VALUE: _start:G_M1 <- 30000
	#DEBUG_VALUE: _start:G_M0 <- 150000
	#DEBUG_VALUE: _start:max_y_bounds <- 118784
	#DEBUG_VALUE: _start:max_x_bounds <- 159744
	#DEBUG_VALUE: _start:ONE <- 256
	#DEBUG_VALUE: _start:FRACTION_BITS <- 8
	.loc	0 0 13 is_stmt 0                # program.c:0:13
	mv	t3, a6
.Ltmp286:
	.loc	0 45 12 is_stmt 1               # program.c:45:12
	bgez	t0, .LBB0_108
.Ltmp287:
# %bb.107:                              #   in Loop: Header=BB0_2 Depth=1
	#DEBUG_VALUE: scaled_dy <- $x5
	#DEBUG_VALUE: scaled_dx <- $x17
	#DEBUG_VALUE: _start:s1_vy <- $x25
	#DEBUG_VALUE: _start:s1_vx <- $x19
	#DEBUG_VALUE: _start:s0_vy <- $x21
	#DEBUG_VALUE: dy <- $x11
	#DEBUG_VALUE: dx <- $x15
	#DEBUG_VALUE: _start:s0_y <- [DW_OP_plus_uconst 76] [$x2+0]
	#DEBUG_VALUE: _start:s1_y <- [DW_OP_plus_uconst 68] [$x2+0]
	#DEBUG_VALUE: _start:s1_x <- [DW_OP_plus_uconst 64] [$x2+0]
	#DEBUG_VALUE: r_cubed <- $x10
	#DEBUG_VALUE: _start:s2_vy <- $x27
	#DEBUG_VALUE: _start:s2_vx <- $x24
	#DEBUG_VALUE: _start:s2_y <- $x23
	#DEBUG_VALUE: _start:s2_x <- [DW_OP_plus_uconst 88] [$x2+0]
	#DEBUG_VALUE: _start:s0_x <- $x31
	#DEBUG_VALUE: _start:G_M2 <- 30000
	#DEBUG_VALUE: _start:G_M1 <- 30000
	#DEBUG_VALUE: _start:G_M0 <- 150000
	#DEBUG_VALUE: _start:max_y_bounds <- 118784
	#DEBUG_VALUE: _start:max_x_bounds <- 159744
	#DEBUG_VALUE: _start:ONE <- 256
	#DEBUG_VALUE: _start:FRACTION_BITS <- 8
	.loc	0 0 12 is_stmt 0                # program.c:0:12
	neg	t3, a6
.Ltmp288:
.LBB0_108:                              #   in Loop: Header=BB0_2 Depth=1
	#DEBUG_VALUE: scaled_dy <- $x5
	#DEBUG_VALUE: scaled_dx <- $x17
	#DEBUG_VALUE: _start:s1_vy <- $x25
	#DEBUG_VALUE: _start:s1_vx <- $x19
	#DEBUG_VALUE: _start:s0_vy <- $x21
	#DEBUG_VALUE: dy <- $x11
	#DEBUG_VALUE: dx <- $x15
	#DEBUG_VALUE: _start:s0_y <- [DW_OP_plus_uconst 76] [$x2+0]
	#DEBUG_VALUE: _start:s1_y <- [DW_OP_plus_uconst 68] [$x2+0]
	#DEBUG_VALUE: _start:s1_x <- [DW_OP_plus_uconst 64] [$x2+0]
	#DEBUG_VALUE: r_cubed <- $x10
	#DEBUG_VALUE: _start:s2_vy <- $x27
	#DEBUG_VALUE: _start:s2_vx <- $x24
	#DEBUG_VALUE: _start:s2_y <- $x23
	#DEBUG_VALUE: _start:s2_x <- [DW_OP_plus_uconst 88] [$x2+0]
	#DEBUG_VALUE: _start:s0_x <- $x31
	#DEBUG_VALUE: _start:G_M2 <- 30000
	#DEBUG_VALUE: _start:G_M1 <- 30000
	#DEBUG_VALUE: _start:G_M0 <- 150000
	#DEBUG_VALUE: _start:max_y_bounds <- 118784
	#DEBUG_VALUE: _start:max_x_bounds <- 159744
	#DEBUG_VALUE: _start:ONE <- 256
	#DEBUG_VALUE: _start:FRACTION_BITS <- 8
	#DEBUG_VALUE: soft_div:num <- $x28
	#DEBUG_VALUE: soft_div:sign <- 1
	.loc	0 52 13 is_stmt 1               # program.c:52:13
	srai	t4, a6, 31
	xor	a6, a6, t4
	sub	t4, a6, t4
.Ltmp289:
	#DEBUG_VALUE: soft_div:num <- $x29
	#DEBUG_VALUE: soft_div:sign <- undef
	#DEBUG_VALUE: soft_div:n <- $x29
	.loc	0 53 13                         # program.c:53:13
	xor	a6, a2, a4
	sub	t6, a6, a4
.Ltmp290:
	#DEBUG_VALUE: soft_div:den <- $x31
	#DEBUG_VALUE: soft_div:d <- $x31
	#DEBUG_VALUE: soft_div:res <- 0
	#DEBUG_VALUE: soft_div:current <- 1
	.loc	0 60 5                          # program.c:60:5
	bgeu	t4, t6, .LBB0_111
.Ltmp291:
# %bb.109:                              #   in Loop: Header=BB0_2 Depth=1
	#DEBUG_VALUE: soft_div:current <- 1
	#DEBUG_VALUE: soft_div:res <- 0
	#DEBUG_VALUE: soft_div:d <- $x31
	#DEBUG_VALUE: soft_div:den <- $x31
	#DEBUG_VALUE: soft_div:n <- $x29
	#DEBUG_VALUE: soft_div:num <- $x29
	#DEBUG_VALUE: scaled_dy <- $x5
	#DEBUG_VALUE: scaled_dx <- $x17
	#DEBUG_VALUE: _start:s1_vy <- $x25
	#DEBUG_VALUE: _start:s1_vx <- $x19
	#DEBUG_VALUE: _start:s0_vy <- $x21
	#DEBUG_VALUE: dy <- $x11
	#DEBUG_VALUE: dx <- $x15
	#DEBUG_VALUE: _start:s0_y <- [DW_OP_plus_uconst 76] [$x2+0]
	#DEBUG_VALUE: _start:s1_y <- [DW_OP_plus_uconst 68] [$x2+0]
	#DEBUG_VALUE: _start:s1_x <- [DW_OP_plus_uconst 64] [$x2+0]
	#DEBUG_VALUE: r_cubed <- $x10
	#DEBUG_VALUE: _start:s2_vy <- $x27
	#DEBUG_VALUE: _start:s2_vx <- $x24
	#DEBUG_VALUE: _start:s2_y <- $x23
	#DEBUG_VALUE: _start:s2_x <- [DW_OP_plus_uconst 88] [$x2+0]
	#DEBUG_VALUE: _start:G_M2 <- 30000
	#DEBUG_VALUE: _start:G_M1 <- 30000
	#DEBUG_VALUE: _start:G_M0 <- 150000
	#DEBUG_VALUE: _start:max_y_bounds <- 118784
	#DEBUG_VALUE: _start:max_x_bounds <- 159744
	#DEBUG_VALUE: _start:ONE <- 256
	#DEBUG_VALUE: _start:FRACTION_BITS <- 8
	.loc	0 0 5 is_stmt 0                 # program.c:0:5
	li	a6, 1
	.loc	0 60 5                          # program.c:60:5
	j	.LBB0_113
.Ltmp292:
.LBB0_110:                              #   in Loop: Header=BB0_2 Depth=1
	#DEBUG_VALUE: scaled_dy <- $x5
	#DEBUG_VALUE: scaled_dx <- $x17
	#DEBUG_VALUE: _start:s1_vy <- $x25
	#DEBUG_VALUE: _start:s1_vx <- $x19
	#DEBUG_VALUE: _start:s0_vy <- $x21
	#DEBUG_VALUE: dy <- $x11
	#DEBUG_VALUE: dx <- $x15
	#DEBUG_VALUE: _start:s0_y <- [DW_OP_plus_uconst 76] [$x2+0]
	#DEBUG_VALUE: _start:s1_y <- [DW_OP_plus_uconst 68] [$x2+0]
	#DEBUG_VALUE: _start:s1_x <- [DW_OP_plus_uconst 64] [$x2+0]
	#DEBUG_VALUE: r_cubed <- $x10
	#DEBUG_VALUE: _start:s2_vy <- $x27
	#DEBUG_VALUE: _start:s2_vx <- $x24
	#DEBUG_VALUE: _start:s2_y <- $x23
	#DEBUG_VALUE: _start:s2_x <- [DW_OP_plus_uconst 88] [$x2+0]
	#DEBUG_VALUE: _start:s0_x <- $x31
	#DEBUG_VALUE: _start:G_M2 <- 30000
	#DEBUG_VALUE: _start:G_M1 <- 30000
	#DEBUG_VALUE: _start:G_M0 <- 150000
	#DEBUG_VALUE: _start:max_y_bounds <- 118784
	#DEBUG_VALUE: _start:max_x_bounds <- 159744
	#DEBUG_VALUE: _start:ONE <- 256
	#DEBUG_VALUE: _start:FRACTION_BITS <- 8
	.loc	0 0 5                           # program.c:0:5
	li	a6, 0
.Ltmp293:
	#DEBUG_VALUE: _start:s0_vx <- undef
	#DEBUG_VALUE: _start:s0_vy <- undef
	#DEBUG_VALUE: soft_mul:res <- 0
	#DEBUG_VALUE: soft_mul:a <- 150000
	#DEBUG_VALUE: soft_mul:sign <- undef
	#DEBUG_VALUE: soft_mul:b <- $x6
	#DEBUG_VALUE: soft_mul:ua <- 150000
	#DEBUG_VALUE: soft_mul:ub <- $x6
	li	t3, 0
.Ltmp294:
	.loc	0 40 5 is_stmt 1                # program.c:40:5
	bgeu	a5, s2, .LBB0_119
	j	.LBB0_121
.Ltmp295:
.LBB0_111:                              #   in Loop: Header=BB0_2 Depth=1
	#DEBUG_VALUE: soft_div:current <- 1
	#DEBUG_VALUE: soft_div:res <- 0
	#DEBUG_VALUE: soft_div:d <- $x31
	#DEBUG_VALUE: soft_div:den <- $x31
	#DEBUG_VALUE: soft_div:n <- $x29
	#DEBUG_VALUE: soft_div:num <- $x29
	#DEBUG_VALUE: scaled_dy <- $x5
	#DEBUG_VALUE: scaled_dx <- $x17
	#DEBUG_VALUE: _start:s1_vy <- $x25
	#DEBUG_VALUE: _start:s1_vx <- $x19
	#DEBUG_VALUE: _start:s0_vy <- $x21
	#DEBUG_VALUE: dy <- $x11
	#DEBUG_VALUE: dx <- $x15
	#DEBUG_VALUE: _start:s0_y <- [DW_OP_plus_uconst 76] [$x2+0]
	#DEBUG_VALUE: _start:s1_y <- [DW_OP_plus_uconst 68] [$x2+0]
	#DEBUG_VALUE: _start:s1_x <- [DW_OP_plus_uconst 64] [$x2+0]
	#DEBUG_VALUE: r_cubed <- $x10
	#DEBUG_VALUE: _start:s2_vy <- $x27
	#DEBUG_VALUE: _start:s2_vx <- $x24
	#DEBUG_VALUE: _start:s2_y <- $x23
	#DEBUG_VALUE: _start:s2_x <- [DW_OP_plus_uconst 88] [$x2+0]
	#DEBUG_VALUE: _start:G_M2 <- 30000
	#DEBUG_VALUE: _start:G_M1 <- 30000
	#DEBUG_VALUE: _start:G_M0 <- 150000
	#DEBUG_VALUE: _start:max_y_bounds <- 118784
	#DEBUG_VALUE: _start:max_x_bounds <- 159744
	#DEBUG_VALUE: _start:ONE <- 256
	#DEBUG_VALUE: _start:FRACTION_BITS <- 8
	.loc	0 0 5 is_stmt 0                 # program.c:0:5
	li	a6, 1
.Ltmp296:
.LBB0_112:                              #   Parent Loop BB0_2 Depth=1
                                        # =>  This Inner Loop Header: Depth=2
	#DEBUG_VALUE: soft_div:res <- 0
	#DEBUG_VALUE: soft_div:d <- $x31
	#DEBUG_VALUE: soft_div:n <- $x29
	#DEBUG_VALUE: soft_div:num <- $x29
	#DEBUG_VALUE: scaled_dy <- $x5
	#DEBUG_VALUE: scaled_dx <- $x17
	#DEBUG_VALUE: _start:s1_vy <- $x25
	#DEBUG_VALUE: _start:s1_vx <- $x19
	#DEBUG_VALUE: _start:s0_vy <- $x21
	#DEBUG_VALUE: dy <- $x11
	#DEBUG_VALUE: dx <- $x15
	#DEBUG_VALUE: _start:s0_y <- [DW_OP_plus_uconst 76] [$x2+0]
	#DEBUG_VALUE: _start:s1_y <- [DW_OP_plus_uconst 68] [$x2+0]
	#DEBUG_VALUE: _start:s1_x <- [DW_OP_plus_uconst 64] [$x2+0]
	#DEBUG_VALUE: r_cubed <- $x10
	#DEBUG_VALUE: _start:s2_vy <- $x27
	#DEBUG_VALUE: _start:s2_vx <- $x24
	#DEBUG_VALUE: _start:s2_y <- $x23
	#DEBUG_VALUE: _start:s2_x <- [DW_OP_plus_uconst 88] [$x2+0]
	#DEBUG_VALUE: _start:G_M2 <- 30000
	#DEBUG_VALUE: _start:G_M1 <- 30000
	#DEBUG_VALUE: _start:G_M0 <- 150000
	#DEBUG_VALUE: _start:max_y_bounds <- 118784
	#DEBUG_VALUE: _start:max_x_bounds <- 159744
	#DEBUG_VALUE: _start:ONE <- 256
	#DEBUG_VALUE: _start:FRACTION_BITS <- 8
	#DEBUG_VALUE: soft_div:d <- $x31
	#DEBUG_VALUE: soft_div:current <- $x16
	.loc	0 61 11 is_stmt 1               # program.c:61:11
	slli	t6, t6, 1
.Ltmp297:
	#DEBUG_VALUE: soft_div:d <- $x31
	.loc	0 62 17                         # program.c:62:17
	slli	a6, a6, 1
.Ltmp298:
	#DEBUG_VALUE: soft_div:current <- $x16
	.loc	0 60 5                          # program.c:60:5
	bgeu	t4, t6, .LBB0_112
.Ltmp299:
.LBB0_113:                              #   in Loop: Header=BB0_2 Depth=1
	#DEBUG_VALUE: soft_div:res <- 0
	#DEBUG_VALUE: soft_div:d <- $x31
	#DEBUG_VALUE: soft_div:n <- $x29
	#DEBUG_VALUE: soft_div:num <- $x29
	#DEBUG_VALUE: scaled_dy <- $x5
	#DEBUG_VALUE: scaled_dx <- $x17
	#DEBUG_VALUE: _start:s1_vy <- $x25
	#DEBUG_VALUE: _start:s1_vx <- $x19
	#DEBUG_VALUE: _start:s0_vy <- $x21
	#DEBUG_VALUE: dy <- $x11
	#DEBUG_VALUE: dx <- $x15
	#DEBUG_VALUE: _start:s0_y <- [DW_OP_plus_uconst 76] [$x2+0]
	#DEBUG_VALUE: _start:s1_y <- [DW_OP_plus_uconst 68] [$x2+0]
	#DEBUG_VALUE: _start:s1_x <- [DW_OP_plus_uconst 64] [$x2+0]
	#DEBUG_VALUE: r_cubed <- $x10
	#DEBUG_VALUE: _start:s2_vy <- $x27
	#DEBUG_VALUE: _start:s2_vx <- $x24
	#DEBUG_VALUE: _start:s2_y <- $x23
	#DEBUG_VALUE: _start:s2_x <- [DW_OP_plus_uconst 88] [$x2+0]
	#DEBUG_VALUE: _start:G_M2 <- 30000
	#DEBUG_VALUE: _start:G_M1 <- 30000
	#DEBUG_VALUE: _start:G_M0 <- 150000
	#DEBUG_VALUE: _start:max_y_bounds <- 118784
	#DEBUG_VALUE: _start:max_x_bounds <- 159744
	#DEBUG_VALUE: _start:ONE <- 256
	#DEBUG_VALUE: _start:FRACTION_BITS <- 8
	.loc	0 0 5 is_stmt 0                 # program.c:0:5
	sltiu	t5, a6, 2
	xori	s0, t5, 1
.Ltmp300:
	#DEBUG_VALUE: soft_div:d <- [DW_OP_LLVM_arg 0, DW_OP_LLVM_arg 1, DW_OP_shr, DW_OP_stack_value] $x31, $x8
	.loc	0 64 15 is_stmt 1               # program.c:64:15
	srl	t5, a6, s0
.Ltmp301:
	#DEBUG_VALUE: soft_div:n <- $x29
	#DEBUG_VALUE: soft_div:res <- 0
	#DEBUG_VALUE: soft_div:current <- $x30
	.loc	0 69 5                          # program.c:69:5
	beqz	t5, .LBB0_280
.Ltmp302:
# %bb.114:                              #   in Loop: Header=BB0_2 Depth=1
	#DEBUG_VALUE: soft_div:current <- $x30
	#DEBUG_VALUE: soft_div:d <- [DW_OP_LLVM_arg 0, DW_OP_LLVM_arg 1, DW_OP_shr, DW_OP_stack_value] $x31, $x8
	#DEBUG_VALUE: soft_div:res <- 0
	#DEBUG_VALUE: soft_div:n <- $x29
	#DEBUG_VALUE: soft_div:num <- $x29
	#DEBUG_VALUE: scaled_dy <- $x5
	#DEBUG_VALUE: scaled_dx <- $x17
	#DEBUG_VALUE: _start:s1_vy <- $x25
	#DEBUG_VALUE: _start:s1_vx <- $x19
	#DEBUG_VALUE: _start:s0_vy <- $x21
	#DEBUG_VALUE: dy <- $x11
	#DEBUG_VALUE: dx <- $x15
	#DEBUG_VALUE: _start:s0_y <- [DW_OP_plus_uconst 76] [$x2+0]
	#DEBUG_VALUE: _start:s1_y <- [DW_OP_plus_uconst 68] [$x2+0]
	#DEBUG_VALUE: _start:s1_x <- [DW_OP_plus_uconst 64] [$x2+0]
	#DEBUG_VALUE: r_cubed <- $x10
	#DEBUG_VALUE: _start:s2_vy <- $x27
	#DEBUG_VALUE: _start:s2_vx <- $x24
	#DEBUG_VALUE: _start:s2_y <- $x23
	#DEBUG_VALUE: _start:s2_x <- [DW_OP_plus_uconst 88] [$x2+0]
	#DEBUG_VALUE: _start:G_M2 <- 30000
	#DEBUG_VALUE: _start:G_M1 <- 30000
	#DEBUG_VALUE: _start:G_M0 <- 150000
	#DEBUG_VALUE: _start:max_y_bounds <- 118784
	#DEBUG_VALUE: _start:max_x_bounds <- 159744
	#DEBUG_VALUE: _start:ONE <- 256
	#DEBUG_VALUE: _start:FRACTION_BITS <- 8
	.loc	0 0 5 is_stmt 0                 # program.c:0:5
	li	a6, 0
.Ltmp303:
	.loc	0 64 15 is_stmt 1               # program.c:64:15
	srl	t6, t6, s0
.Ltmp304:
	#DEBUG_VALUE: soft_div:d <- $x31
.LBB0_115:                              #   Parent Loop BB0_2 Depth=1
                                        # =>  This Inner Loop Header: Depth=2
	#DEBUG_VALUE: soft_div:current <- $x30
	#DEBUG_VALUE: soft_div:d <- $x31
	#DEBUG_VALUE: soft_div:n <- $x29
	#DEBUG_VALUE: scaled_dy <- $x5
	#DEBUG_VALUE: scaled_dx <- $x17
	#DEBUG_VALUE: _start:s1_vy <- $x25
	#DEBUG_VALUE: _start:s1_vx <- $x19
	#DEBUG_VALUE: _start:s0_vy <- $x21
	#DEBUG_VALUE: dy <- $x11
	#DEBUG_VALUE: dx <- $x15
	#DEBUG_VALUE: _start:s0_y <- [DW_OP_plus_uconst 76] [$x2+0]
	#DEBUG_VALUE: _start:s1_y <- [DW_OP_plus_uconst 68] [$x2+0]
	#DEBUG_VALUE: _start:s1_x <- [DW_OP_plus_uconst 64] [$x2+0]
	#DEBUG_VALUE: r_cubed <- $x10
	#DEBUG_VALUE: _start:s2_vy <- $x27
	#DEBUG_VALUE: _start:s2_vx <- $x24
	#DEBUG_VALUE: _start:s2_y <- $x23
	#DEBUG_VALUE: _start:s2_x <- [DW_OP_plus_uconst 88] [$x2+0]
	#DEBUG_VALUE: _start:G_M2 <- 30000
	#DEBUG_VALUE: _start:G_M1 <- 30000
	#DEBUG_VALUE: _start:G_M0 <- 150000
	#DEBUG_VALUE: _start:max_y_bounds <- 118784
	#DEBUG_VALUE: _start:max_x_bounds <- 159744
	#DEBUG_VALUE: _start:ONE <- 256
	#DEBUG_VALUE: _start:FRACTION_BITS <- 8
	#DEBUG_VALUE: soft_div:n <- $x29
	#DEBUG_VALUE: soft_div:d <- $x31
	#DEBUG_VALUE: soft_div:res <- $x16
	#DEBUG_VALUE: soft_div:current <- $x30
	.loc	0 70 15                         # program.c:70:15
	sltu	s0, t4, t6
	addi	s0, s0, -1
	and	s1, s0, t6
	and	s0, s0, t5
.Ltmp305:
	.loc	0 74 17                         # program.c:74:17
	srli	t5, t5, 1
.Ltmp306:
	#DEBUG_VALUE: soft_div:current <- $x30
	.loc	0 70 15                         # program.c:70:15
	sub	t4, t4, s1
.Ltmp307:
	or	a6, s0, a6
.Ltmp308:
	#DEBUG_VALUE: soft_div:res <- $x16
	#DEBUG_VALUE: soft_div:n <- $x29
	.loc	0 75 11                         # program.c:75:11
	srli	t6, t6, 1
.Ltmp309:
	#DEBUG_VALUE: soft_div:d <- $x31
	.loc	0 69 5                          # program.c:69:5
	bnez	t5, .LBB0_115
.Ltmp310:
# %bb.116:                              #   in Loop: Header=BB0_2 Depth=1
	#DEBUG_VALUE: soft_div:res <- $x16
	#DEBUG_VALUE: soft_div:current <- $x30
	#DEBUG_VALUE: soft_div:d <- $x31
	#DEBUG_VALUE: soft_div:n <- $x29
	#DEBUG_VALUE: scaled_dy <- $x5
	#DEBUG_VALUE: scaled_dx <- $x17
	#DEBUG_VALUE: _start:s1_vy <- $x25
	#DEBUG_VALUE: _start:s1_vx <- $x19
	#DEBUG_VALUE: _start:s0_vy <- $x21
	#DEBUG_VALUE: dy <- $x11
	#DEBUG_VALUE: dx <- $x15
	#DEBUG_VALUE: _start:s0_y <- [DW_OP_plus_uconst 76] [$x2+0]
	#DEBUG_VALUE: _start:s1_y <- [DW_OP_plus_uconst 68] [$x2+0]
	#DEBUG_VALUE: _start:s1_x <- [DW_OP_plus_uconst 64] [$x2+0]
	#DEBUG_VALUE: r_cubed <- $x10
	#DEBUG_VALUE: _start:s2_vy <- $x27
	#DEBUG_VALUE: _start:s2_vx <- $x24
	#DEBUG_VALUE: _start:s2_y <- $x23
	#DEBUG_VALUE: _start:s2_x <- [DW_OP_plus_uconst 88] [$x2+0]
	#DEBUG_VALUE: _start:G_M2 <- 30000
	#DEBUG_VALUE: _start:G_M1 <- 30000
	#DEBUG_VALUE: _start:G_M0 <- 150000
	#DEBUG_VALUE: _start:max_y_bounds <- 118784
	#DEBUG_VALUE: _start:max_x_bounds <- 159744
	#DEBUG_VALUE: _start:ONE <- 256
	#DEBUG_VALUE: _start:FRACTION_BITS <- 8
	.loc	0 77 18                         # program.c:77:18
	xor	t3, t3, a0
	.loc	0 77 12 is_stmt 0               # program.c:77:12
	bgez	t3, .LBB0_118
.Ltmp311:
.LBB0_117:                              #   in Loop: Header=BB0_2 Depth=1
	#DEBUG_VALUE: soft_div:current <- $x30
	#DEBUG_VALUE: soft_div:n <- $x29
	#DEBUG_VALUE: scaled_dy <- $x5
	#DEBUG_VALUE: scaled_dx <- $x17
	#DEBUG_VALUE: _start:s1_vy <- $x25
	#DEBUG_VALUE: _start:s1_vx <- $x19
	#DEBUG_VALUE: _start:s0_vy <- $x21
	#DEBUG_VALUE: dy <- $x11
	#DEBUG_VALUE: dx <- $x15
	#DEBUG_VALUE: _start:s0_y <- [DW_OP_plus_uconst 76] [$x2+0]
	#DEBUG_VALUE: _start:s1_y <- [DW_OP_plus_uconst 68] [$x2+0]
	#DEBUG_VALUE: _start:s1_x <- [DW_OP_plus_uconst 64] [$x2+0]
	#DEBUG_VALUE: r_cubed <- $x10
	#DEBUG_VALUE: _start:s2_vy <- $x27
	#DEBUG_VALUE: _start:s2_vx <- $x24
	#DEBUG_VALUE: _start:s2_y <- $x23
	#DEBUG_VALUE: _start:s2_x <- [DW_OP_plus_uconst 88] [$x2+0]
	#DEBUG_VALUE: _start:G_M2 <- 30000
	#DEBUG_VALUE: _start:G_M1 <- 30000
	#DEBUG_VALUE: _start:G_M0 <- 150000
	#DEBUG_VALUE: _start:max_y_bounds <- 118784
	#DEBUG_VALUE: _start:max_x_bounds <- 159744
	#DEBUG_VALUE: _start:ONE <- 256
	#DEBUG_VALUE: _start:FRACTION_BITS <- 8
	neg	a6, a6
.Ltmp312:
.LBB0_118:                              #   in Loop: Header=BB0_2 Depth=1
	#DEBUG_VALUE: scaled_dy <- $x5
	#DEBUG_VALUE: scaled_dx <- $x17
	#DEBUG_VALUE: _start:s1_vy <- $x25
	#DEBUG_VALUE: _start:s1_vx <- $x19
	#DEBUG_VALUE: _start:s0_vy <- $x21
	#DEBUG_VALUE: dy <- $x11
	#DEBUG_VALUE: dx <- $x15
	#DEBUG_VALUE: _start:s0_y <- [DW_OP_plus_uconst 76] [$x2+0]
	#DEBUG_VALUE: _start:s1_y <- [DW_OP_plus_uconst 68] [$x2+0]
	#DEBUG_VALUE: _start:s1_x <- [DW_OP_plus_uconst 64] [$x2+0]
	#DEBUG_VALUE: r_cubed <- $x10
	#DEBUG_VALUE: _start:s2_vy <- $x27
	#DEBUG_VALUE: _start:s2_vx <- $x24
	#DEBUG_VALUE: _start:s2_y <- $x23
	#DEBUG_VALUE: _start:s2_x <- [DW_OP_plus_uconst 88] [$x2+0]
	#DEBUG_VALUE: _start:G_M2 <- 30000
	#DEBUG_VALUE: _start:G_M1 <- 30000
	#DEBUG_VALUE: _start:G_M0 <- 150000
	#DEBUG_VALUE: _start:max_y_bounds <- 118784
	#DEBUG_VALUE: _start:max_x_bounds <- 159744
	#DEBUG_VALUE: _start:ONE <- 256
	#DEBUG_VALUE: _start:FRACTION_BITS <- 8
	.loc	0 0 12                          # program.c:0:12
	lw	t6, 80(sp)                      # 4-byte Folded Reload
.Ltmp313:
	#DEBUG_VALUE: _start:s0_vx <- undef
	#DEBUG_VALUE: _start:s0_vy <- undef
	#DEBUG_VALUE: soft_mul:res <- 0
	#DEBUG_VALUE: soft_mul:a <- 150000
	#DEBUG_VALUE: soft_mul:sign <- undef
	#DEBUG_VALUE: soft_mul:b <- $x6
	#DEBUG_VALUE: soft_mul:ua <- 150000
	#DEBUG_VALUE: soft_mul:ub <- $x6
	li	t3, 0
.Ltmp314:
	.loc	0 40 5 is_stmt 1                # program.c:40:5
	bltu	a5, s2, .LBB0_121
.Ltmp315:
.LBB0_119:                              #   in Loop: Header=BB0_2 Depth=1
	#DEBUG_VALUE: soft_mul:ub <- $x6
	#DEBUG_VALUE: soft_mul:ua <- 150000
	#DEBUG_VALUE: soft_mul:b <- $x6
	#DEBUG_VALUE: soft_mul:a <- 150000
	#DEBUG_VALUE: soft_mul:res <- 0
	#DEBUG_VALUE: scaled_dy <- $x5
	#DEBUG_VALUE: scaled_dx <- $x17
	#DEBUG_VALUE: _start:s1_vy <- $x25
	#DEBUG_VALUE: _start:s1_vx <- $x19
	#DEBUG_VALUE: dy <- $x11
	#DEBUG_VALUE: dx <- $x15
	#DEBUG_VALUE: _start:s0_y <- [DW_OP_plus_uconst 76] [$x2+0]
	#DEBUG_VALUE: _start:s1_y <- [DW_OP_plus_uconst 68] [$x2+0]
	#DEBUG_VALUE: _start:s1_x <- [DW_OP_plus_uconst 64] [$x2+0]
	#DEBUG_VALUE: r_cubed <- $x10
	#DEBUG_VALUE: _start:s2_vy <- $x27
	#DEBUG_VALUE: _start:s2_vx <- $x24
	#DEBUG_VALUE: _start:s2_y <- $x23
	#DEBUG_VALUE: _start:s2_x <- [DW_OP_plus_uconst 88] [$x2+0]
	#DEBUG_VALUE: _start:G_M2 <- 30000
	#DEBUG_VALUE: _start:G_M1 <- 30000
	#DEBUG_VALUE: _start:G_M0 <- 150000
	#DEBUG_VALUE: _start:max_y_bounds <- 118784
	#DEBUG_VALUE: _start:max_x_bounds <- 159744
	#DEBUG_VALUE: _start:ONE <- 256
	#DEBUG_VALUE: _start:FRACTION_BITS <- 8
	.loc	0 0 5 is_stmt 0                 # program.c:0:5
	lui	a5, 37
.Ltmp316:
	addi	a5, a5, -1552
.Ltmp317:
.LBB0_120:                              #   Parent Loop BB0_2 Depth=1
                                        # =>  This Inner Loop Header: Depth=2
	#DEBUG_VALUE: soft_mul:ub <- $x6
	#DEBUG_VALUE: soft_mul:a <- 150000
	#DEBUG_VALUE: scaled_dy <- $x5
	#DEBUG_VALUE: scaled_dx <- $x17
	#DEBUG_VALUE: _start:s1_vy <- $x25
	#DEBUG_VALUE: _start:s1_vx <- $x19
	#DEBUG_VALUE: dy <- $x11
	#DEBUG_VALUE: _start:s0_y <- [DW_OP_plus_uconst 76] [$x2+0]
	#DEBUG_VALUE: _start:s1_y <- [DW_OP_plus_uconst 68] [$x2+0]
	#DEBUG_VALUE: _start:s1_x <- [DW_OP_plus_uconst 64] [$x2+0]
	#DEBUG_VALUE: r_cubed <- $x10
	#DEBUG_VALUE: _start:s2_vy <- $x27
	#DEBUG_VALUE: _start:s2_vx <- $x24
	#DEBUG_VALUE: _start:s2_y <- $x23
	#DEBUG_VALUE: _start:s2_x <- [DW_OP_plus_uconst 88] [$x2+0]
	#DEBUG_VALUE: _start:G_M2 <- 30000
	#DEBUG_VALUE: _start:G_M1 <- 30000
	#DEBUG_VALUE: _start:G_M0 <- 150000
	#DEBUG_VALUE: _start:max_y_bounds <- 118784
	#DEBUG_VALUE: _start:max_x_bounds <- 159744
	#DEBUG_VALUE: _start:ONE <- 256
	#DEBUG_VALUE: _start:FRACTION_BITS <- 8
	#DEBUG_VALUE: soft_mul:res <- $x28
	#DEBUG_VALUE: soft_mul:ua <- $x15
	#DEBUG_VALUE: soft_mul:ub <- $x6
	.loc	0 41 16 is_stmt 1               # program.c:41:16
	slli	t4, t1, 31
.Ltmp318:
	.loc	0 43 12                         # program.c:43:12
	srli	t1, t1, 1
.Ltmp319:
	#DEBUG_VALUE: soft_mul:ub <- $x6
	.loc	0 41 16                         # program.c:41:16
	srai	t4, t4, 31
	and	t4, t4, a5
	add	t3, t4, t3
.Ltmp320:
	#DEBUG_VALUE: soft_mul:res <- $x28
	.loc	0 42 12                         # program.c:42:12
	slli	a5, a5, 1
.Ltmp321:
	#DEBUG_VALUE: soft_mul:ua <- $x15
	.loc	0 40 5                          # program.c:40:5
	bnez	t1, .LBB0_120
.Ltmp322:
.LBB0_121:                              #   in Loop: Header=BB0_2 Depth=1
	#DEBUG_VALUE: scaled_dy <- $x5
	#DEBUG_VALUE: scaled_dx <- $x17
	#DEBUG_VALUE: _start:s1_vy <- $x25
	#DEBUG_VALUE: _start:s1_vx <- $x19
	#DEBUG_VALUE: dy <- $x11
	#DEBUG_VALUE: _start:s0_y <- [DW_OP_plus_uconst 76] [$x2+0]
	#DEBUG_VALUE: _start:s1_y <- [DW_OP_plus_uconst 68] [$x2+0]
	#DEBUG_VALUE: _start:s1_x <- [DW_OP_plus_uconst 64] [$x2+0]
	#DEBUG_VALUE: r_cubed <- $x10
	#DEBUG_VALUE: _start:s2_vy <- $x27
	#DEBUG_VALUE: _start:s2_vx <- $x24
	#DEBUG_VALUE: _start:s2_y <- $x23
	#DEBUG_VALUE: _start:s2_x <- [DW_OP_plus_uconst 88] [$x2+0]
	#DEBUG_VALUE: _start:G_M2 <- 30000
	#DEBUG_VALUE: _start:G_M1 <- 30000
	#DEBUG_VALUE: _start:G_M0 <- 150000
	#DEBUG_VALUE: _start:max_y_bounds <- 118784
	#DEBUG_VALUE: _start:max_x_bounds <- 159744
	#DEBUG_VALUE: _start:ONE <- 256
	#DEBUG_VALUE: _start:FRACTION_BITS <- 8
	#DEBUG_VALUE: _start:s0_vx <- undef
	#DEBUG_VALUE: _start:s0_vy <- undef
	#DEBUG_VALUE: soft_div:num <- undef
	#DEBUG_VALUE: soft_div:den <- $x10
	.loc	0 50 13                         # program.c:50:13
	beqz	a0, .LBB0_126
.Ltmp323:
# %bb.122:                              #   in Loop: Header=BB0_2 Depth=1
	#DEBUG_VALUE: scaled_dy <- $x5
	#DEBUG_VALUE: scaled_dx <- $x17
	#DEBUG_VALUE: _start:s1_vy <- $x25
	#DEBUG_VALUE: _start:s1_vx <- $x19
	#DEBUG_VALUE: dy <- $x11
	#DEBUG_VALUE: _start:s0_y <- [DW_OP_plus_uconst 76] [$x2+0]
	#DEBUG_VALUE: _start:s1_y <- [DW_OP_plus_uconst 68] [$x2+0]
	#DEBUG_VALUE: _start:s1_x <- [DW_OP_plus_uconst 64] [$x2+0]
	#DEBUG_VALUE: r_cubed <- $x10
	#DEBUG_VALUE: _start:s2_vy <- $x27
	#DEBUG_VALUE: _start:s2_vx <- $x24
	#DEBUG_VALUE: _start:s2_y <- $x23
	#DEBUG_VALUE: _start:s2_x <- [DW_OP_plus_uconst 88] [$x2+0]
	#DEBUG_VALUE: _start:G_M2 <- 30000
	#DEBUG_VALUE: _start:G_M1 <- 30000
	#DEBUG_VALUE: _start:G_M0 <- 150000
	#DEBUG_VALUE: _start:max_y_bounds <- 118784
	#DEBUG_VALUE: _start:max_x_bounds <- 159744
	#DEBUG_VALUE: _start:ONE <- 256
	#DEBUG_VALUE: _start:FRACTION_BITS <- 8
	.loc	0 0 13 is_stmt 0                # program.c:0:13
	mv	a5, t3
.Ltmp324:
	.loc	0 45 12 is_stmt 1               # program.c:45:12
	bgez	a7, .LBB0_124
.Ltmp325:
# %bb.123:                              #   in Loop: Header=BB0_2 Depth=1
	#DEBUG_VALUE: scaled_dy <- $x5
	#DEBUG_VALUE: scaled_dx <- $x17
	#DEBUG_VALUE: _start:s1_vy <- $x25
	#DEBUG_VALUE: _start:s1_vx <- $x19
	#DEBUG_VALUE: dy <- $x11
	#DEBUG_VALUE: _start:s0_y <- [DW_OP_plus_uconst 76] [$x2+0]
	#DEBUG_VALUE: _start:s1_y <- [DW_OP_plus_uconst 68] [$x2+0]
	#DEBUG_VALUE: _start:s1_x <- [DW_OP_plus_uconst 64] [$x2+0]
	#DEBUG_VALUE: r_cubed <- $x10
	#DEBUG_VALUE: _start:s2_vy <- $x27
	#DEBUG_VALUE: _start:s2_vx <- $x24
	#DEBUG_VALUE: _start:s2_y <- $x23
	#DEBUG_VALUE: _start:s2_x <- [DW_OP_plus_uconst 88] [$x2+0]
	#DEBUG_VALUE: _start:G_M2 <- 30000
	#DEBUG_VALUE: _start:G_M1 <- 30000
	#DEBUG_VALUE: _start:G_M0 <- 150000
	#DEBUG_VALUE: _start:max_y_bounds <- 118784
	#DEBUG_VALUE: _start:max_x_bounds <- 159744
	#DEBUG_VALUE: _start:ONE <- 256
	#DEBUG_VALUE: _start:FRACTION_BITS <- 8
	.loc	0 0 12 is_stmt 0                # program.c:0:12
	neg	a5, t3
.Ltmp326:
.LBB0_124:                              #   in Loop: Header=BB0_2 Depth=1
	#DEBUG_VALUE: scaled_dy <- $x5
	#DEBUG_VALUE: scaled_dx <- $x17
	#DEBUG_VALUE: _start:s1_vy <- $x25
	#DEBUG_VALUE: _start:s1_vx <- $x19
	#DEBUG_VALUE: dy <- $x11
	#DEBUG_VALUE: _start:s0_y <- [DW_OP_plus_uconst 76] [$x2+0]
	#DEBUG_VALUE: _start:s1_y <- [DW_OP_plus_uconst 68] [$x2+0]
	#DEBUG_VALUE: _start:s1_x <- [DW_OP_plus_uconst 64] [$x2+0]
	#DEBUG_VALUE: r_cubed <- $x10
	#DEBUG_VALUE: _start:s2_vy <- $x27
	#DEBUG_VALUE: _start:s2_vx <- $x24
	#DEBUG_VALUE: _start:s2_y <- $x23
	#DEBUG_VALUE: _start:s2_x <- [DW_OP_plus_uconst 88] [$x2+0]
	#DEBUG_VALUE: _start:G_M2 <- 30000
	#DEBUG_VALUE: _start:G_M1 <- 30000
	#DEBUG_VALUE: _start:G_M0 <- 150000
	#DEBUG_VALUE: _start:max_y_bounds <- 118784
	#DEBUG_VALUE: _start:max_x_bounds <- 159744
	#DEBUG_VALUE: _start:ONE <- 256
	#DEBUG_VALUE: _start:FRACTION_BITS <- 8
	#DEBUG_VALUE: soft_div:num <- $x15
	#DEBUG_VALUE: soft_div:sign <- 1
	.loc	0 52 13 is_stmt 1               # program.c:52:13
	srai	a7, t3, 31
.Ltmp327:
	xor	t1, t3, a7
	sub	a7, t1, a7
.Ltmp328:
	#DEBUG_VALUE: soft_div:num <- $x17
	#DEBUG_VALUE: soft_div:sign <- undef
	#DEBUG_VALUE: soft_div:n <- $x17
	.loc	0 53 13                         # program.c:53:13
	xor	t1, a2, a4
	sub	t3, t1, a4
.Ltmp329:
	#DEBUG_VALUE: soft_div:den <- $x28
	#DEBUG_VALUE: soft_div:d <- $x28
	#DEBUG_VALUE: soft_div:res <- 0
	#DEBUG_VALUE: soft_div:current <- 1
	.loc	0 60 5                          # program.c:60:5
	bgeu	a7, t3, .LBB0_127
.Ltmp330:
# %bb.125:                              #   in Loop: Header=BB0_2 Depth=1
	#DEBUG_VALUE: soft_div:current <- 1
	#DEBUG_VALUE: soft_div:res <- 0
	#DEBUG_VALUE: soft_div:d <- $x28
	#DEBUG_VALUE: soft_div:den <- $x28
	#DEBUG_VALUE: soft_div:n <- $x17
	#DEBUG_VALUE: soft_div:num <- $x17
	#DEBUG_VALUE: scaled_dy <- $x5
	#DEBUG_VALUE: _start:s1_vy <- $x25
	#DEBUG_VALUE: _start:s1_vx <- $x19
	#DEBUG_VALUE: dy <- $x11
	#DEBUG_VALUE: _start:s0_y <- [DW_OP_plus_uconst 76] [$x2+0]
	#DEBUG_VALUE: _start:s1_y <- [DW_OP_plus_uconst 68] [$x2+0]
	#DEBUG_VALUE: _start:s1_x <- [DW_OP_plus_uconst 64] [$x2+0]
	#DEBUG_VALUE: r_cubed <- $x10
	#DEBUG_VALUE: _start:s2_vy <- $x27
	#DEBUG_VALUE: _start:s2_vx <- $x24
	#DEBUG_VALUE: _start:s2_y <- $x23
	#DEBUG_VALUE: _start:s2_x <- [DW_OP_plus_uconst 88] [$x2+0]
	#DEBUG_VALUE: _start:G_M2 <- 30000
	#DEBUG_VALUE: _start:G_M1 <- 30000
	#DEBUG_VALUE: _start:G_M0 <- 150000
	#DEBUG_VALUE: _start:max_y_bounds <- 118784
	#DEBUG_VALUE: _start:max_x_bounds <- 159744
	#DEBUG_VALUE: _start:ONE <- 256
	#DEBUG_VALUE: _start:FRACTION_BITS <- 8
	.loc	0 0 5 is_stmt 0                 # program.c:0:5
	li	t1, 1
	.loc	0 60 5                          # program.c:60:5
	j	.LBB0_129
.Ltmp331:
.LBB0_126:                              #   in Loop: Header=BB0_2 Depth=1
	#DEBUG_VALUE: soft_div:den <- $x10
	#DEBUG_VALUE: scaled_dy <- $x5
	#DEBUG_VALUE: scaled_dx <- $x17
	#DEBUG_VALUE: _start:s1_vy <- $x25
	#DEBUG_VALUE: _start:s1_vx <- $x19
	#DEBUG_VALUE: dy <- $x11
	#DEBUG_VALUE: _start:s0_y <- [DW_OP_plus_uconst 76] [$x2+0]
	#DEBUG_VALUE: _start:s1_y <- [DW_OP_plus_uconst 68] [$x2+0]
	#DEBUG_VALUE: _start:s1_x <- [DW_OP_plus_uconst 64] [$x2+0]
	#DEBUG_VALUE: r_cubed <- $x10
	#DEBUG_VALUE: _start:s2_vy <- $x27
	#DEBUG_VALUE: _start:s2_vx <- $x24
	#DEBUG_VALUE: _start:s2_y <- $x23
	#DEBUG_VALUE: _start:s2_x <- [DW_OP_plus_uconst 88] [$x2+0]
	#DEBUG_VALUE: _start:G_M2 <- 30000
	#DEBUG_VALUE: _start:G_M1 <- 30000
	#DEBUG_VALUE: _start:G_M0 <- 150000
	#DEBUG_VALUE: _start:max_y_bounds <- 118784
	#DEBUG_VALUE: _start:max_x_bounds <- 159744
	#DEBUG_VALUE: _start:ONE <- 256
	#DEBUG_VALUE: _start:FRACTION_BITS <- 8
	.loc	0 0 5                           # program.c:0:5
	li	s6, 0
.Ltmp332:
	.loc	0 50 13 is_stmt 1               # program.c:50:13
	j	.LBB0_134
.Ltmp333:
.LBB0_127:                              #   in Loop: Header=BB0_2 Depth=1
	#DEBUG_VALUE: soft_div:current <- 1
	#DEBUG_VALUE: soft_div:res <- 0
	#DEBUG_VALUE: soft_div:d <- $x28
	#DEBUG_VALUE: soft_div:den <- $x28
	#DEBUG_VALUE: soft_div:n <- $x17
	#DEBUG_VALUE: soft_div:num <- $x17
	#DEBUG_VALUE: scaled_dy <- $x5
	#DEBUG_VALUE: _start:s1_vy <- $x25
	#DEBUG_VALUE: _start:s1_vx <- $x19
	#DEBUG_VALUE: dy <- $x11
	#DEBUG_VALUE: _start:s0_y <- [DW_OP_plus_uconst 76] [$x2+0]
	#DEBUG_VALUE: _start:s1_y <- [DW_OP_plus_uconst 68] [$x2+0]
	#DEBUG_VALUE: _start:s1_x <- [DW_OP_plus_uconst 64] [$x2+0]
	#DEBUG_VALUE: r_cubed <- $x10
	#DEBUG_VALUE: _start:s2_vy <- $x27
	#DEBUG_VALUE: _start:s2_vx <- $x24
	#DEBUG_VALUE: _start:s2_y <- $x23
	#DEBUG_VALUE: _start:s2_x <- [DW_OP_plus_uconst 88] [$x2+0]
	#DEBUG_VALUE: _start:G_M2 <- 30000
	#DEBUG_VALUE: _start:G_M1 <- 30000
	#DEBUG_VALUE: _start:G_M0 <- 150000
	#DEBUG_VALUE: _start:max_y_bounds <- 118784
	#DEBUG_VALUE: _start:max_x_bounds <- 159744
	#DEBUG_VALUE: _start:ONE <- 256
	#DEBUG_VALUE: _start:FRACTION_BITS <- 8
	.loc	0 0 13 is_stmt 0                # program.c:0:13
	li	t1, 1
.Ltmp334:
.LBB0_128:                              #   Parent Loop BB0_2 Depth=1
                                        # =>  This Inner Loop Header: Depth=2
	#DEBUG_VALUE: soft_div:res <- 0
	#DEBUG_VALUE: soft_div:d <- $x28
	#DEBUG_VALUE: soft_div:n <- $x17
	#DEBUG_VALUE: soft_div:num <- $x17
	#DEBUG_VALUE: scaled_dy <- $x5
	#DEBUG_VALUE: _start:s1_vy <- $x25
	#DEBUG_VALUE: _start:s1_vx <- $x19
	#DEBUG_VALUE: dy <- $x11
	#DEBUG_VALUE: _start:s0_y <- [DW_OP_plus_uconst 76] [$x2+0]
	#DEBUG_VALUE: _start:s1_y <- [DW_OP_plus_uconst 68] [$x2+0]
	#DEBUG_VALUE: _start:s1_x <- [DW_OP_plus_uconst 64] [$x2+0]
	#DEBUG_VALUE: r_cubed <- $x10
	#DEBUG_VALUE: _start:s2_vy <- $x27
	#DEBUG_VALUE: _start:s2_vx <- $x24
	#DEBUG_VALUE: _start:s2_y <- $x23
	#DEBUG_VALUE: _start:s2_x <- [DW_OP_plus_uconst 88] [$x2+0]
	#DEBUG_VALUE: _start:G_M2 <- 30000
	#DEBUG_VALUE: _start:G_M1 <- 30000
	#DEBUG_VALUE: _start:G_M0 <- 150000
	#DEBUG_VALUE: _start:max_y_bounds <- 118784
	#DEBUG_VALUE: _start:max_x_bounds <- 159744
	#DEBUG_VALUE: _start:ONE <- 256
	#DEBUG_VALUE: _start:FRACTION_BITS <- 8
	#DEBUG_VALUE: soft_div:d <- $x28
	#DEBUG_VALUE: soft_div:current <- $x6
	.loc	0 61 11 is_stmt 1               # program.c:61:11
	slli	t3, t3, 1
.Ltmp335:
	#DEBUG_VALUE: soft_div:d <- $x28
	.loc	0 62 17                         # program.c:62:17
	slli	t1, t1, 1
.Ltmp336:
	#DEBUG_VALUE: soft_div:current <- $x6
	.loc	0 60 5                          # program.c:60:5
	bgeu	a7, t3, .LBB0_128
.Ltmp337:
.LBB0_129:                              #   in Loop: Header=BB0_2 Depth=1
	#DEBUG_VALUE: soft_div:res <- 0
	#DEBUG_VALUE: soft_div:d <- $x28
	#DEBUG_VALUE: soft_div:n <- $x17
	#DEBUG_VALUE: soft_div:num <- $x17
	#DEBUG_VALUE: scaled_dy <- $x5
	#DEBUG_VALUE: _start:s1_vy <- $x25
	#DEBUG_VALUE: _start:s1_vx <- $x19
	#DEBUG_VALUE: dy <- $x11
	#DEBUG_VALUE: _start:s0_y <- [DW_OP_plus_uconst 76] [$x2+0]
	#DEBUG_VALUE: _start:s1_y <- [DW_OP_plus_uconst 68] [$x2+0]
	#DEBUG_VALUE: _start:s1_x <- [DW_OP_plus_uconst 64] [$x2+0]
	#DEBUG_VALUE: r_cubed <- $x10
	#DEBUG_VALUE: _start:s2_vy <- $x27
	#DEBUG_VALUE: _start:s2_vx <- $x24
	#DEBUG_VALUE: _start:s2_y <- $x23
	#DEBUG_VALUE: _start:s2_x <- [DW_OP_plus_uconst 88] [$x2+0]
	#DEBUG_VALUE: _start:G_M2 <- 30000
	#DEBUG_VALUE: _start:G_M1 <- 30000
	#DEBUG_VALUE: _start:G_M0 <- 150000
	#DEBUG_VALUE: _start:max_y_bounds <- 118784
	#DEBUG_VALUE: _start:max_x_bounds <- 159744
	#DEBUG_VALUE: _start:ONE <- 256
	#DEBUG_VALUE: _start:FRACTION_BITS <- 8
	.loc	0 0 5 is_stmt 0                 # program.c:0:5
	sltiu	t4, t1, 2
	xori	t4, t4, 1
.Ltmp338:
	#DEBUG_VALUE: soft_div:d <- [DW_OP_LLVM_arg 0, DW_OP_LLVM_arg 1, DW_OP_shr, DW_OP_stack_value] $x28, $x29
	li	s6, 0
.Ltmp339:
	.loc	0 64 15 is_stmt 1               # program.c:64:15
	srl	t1, t1, t4
.Ltmp340:
	#DEBUG_VALUE: soft_div:n <- $x17
	#DEBUG_VALUE: soft_div:res <- 0
	#DEBUG_VALUE: soft_div:current <- $x6
	.loc	0 69 5                          # program.c:69:5
	beqz	t1, .LBB0_132
.Ltmp341:
# %bb.130:                              #   in Loop: Header=BB0_2 Depth=1
	#DEBUG_VALUE: soft_div:d <- [DW_OP_LLVM_arg 0, DW_OP_LLVM_arg 1, DW_OP_shr, DW_OP_stack_value] $x28, $x29
	#DEBUG_VALUE: soft_div:current <- $x6
	#DEBUG_VALUE: soft_div:res <- 0
	#DEBUG_VALUE: soft_div:n <- $x17
	#DEBUG_VALUE: soft_div:num <- $x17
	#DEBUG_VALUE: scaled_dy <- $x5
	#DEBUG_VALUE: _start:s1_vy <- $x25
	#DEBUG_VALUE: _start:s1_vx <- $x19
	#DEBUG_VALUE: dy <- $x11
	#DEBUG_VALUE: _start:s0_y <- [DW_OP_plus_uconst 76] [$x2+0]
	#DEBUG_VALUE: _start:s1_y <- [DW_OP_plus_uconst 68] [$x2+0]
	#DEBUG_VALUE: _start:s1_x <- [DW_OP_plus_uconst 64] [$x2+0]
	#DEBUG_VALUE: r_cubed <- $x10
	#DEBUG_VALUE: _start:s2_vy <- $x27
	#DEBUG_VALUE: _start:s2_vx <- $x24
	#DEBUG_VALUE: _start:s2_y <- $x23
	#DEBUG_VALUE: _start:s2_x <- [DW_OP_plus_uconst 88] [$x2+0]
	#DEBUG_VALUE: _start:G_M2 <- 30000
	#DEBUG_VALUE: _start:G_M1 <- 30000
	#DEBUG_VALUE: _start:G_M0 <- 150000
	#DEBUG_VALUE: _start:max_y_bounds <- 118784
	#DEBUG_VALUE: _start:max_x_bounds <- 159744
	#DEBUG_VALUE: _start:ONE <- 256
	#DEBUG_VALUE: _start:FRACTION_BITS <- 8
	.loc	0 64 15                         # program.c:64:15
	srl	t3, t3, t4
.Ltmp342:
	#DEBUG_VALUE: soft_div:d <- $x28
.LBB0_131:                              #   Parent Loop BB0_2 Depth=1
                                        # =>  This Inner Loop Header: Depth=2
	#DEBUG_VALUE: soft_div:current <- $x6
	#DEBUG_VALUE: soft_div:d <- $x28
	#DEBUG_VALUE: soft_div:n <- $x17
	#DEBUG_VALUE: scaled_dy <- $x5
	#DEBUG_VALUE: _start:s1_vy <- $x25
	#DEBUG_VALUE: _start:s1_vx <- $x19
	#DEBUG_VALUE: dy <- $x11
	#DEBUG_VALUE: _start:s0_y <- [DW_OP_plus_uconst 76] [$x2+0]
	#DEBUG_VALUE: _start:s1_y <- [DW_OP_plus_uconst 68] [$x2+0]
	#DEBUG_VALUE: _start:s1_x <- [DW_OP_plus_uconst 64] [$x2+0]
	#DEBUG_VALUE: r_cubed <- $x10
	#DEBUG_VALUE: _start:s2_vy <- $x27
	#DEBUG_VALUE: _start:s2_vx <- $x24
	#DEBUG_VALUE: _start:s2_y <- $x23
	#DEBUG_VALUE: _start:s2_x <- [DW_OP_plus_uconst 88] [$x2+0]
	#DEBUG_VALUE: _start:G_M2 <- 30000
	#DEBUG_VALUE: _start:G_M1 <- 30000
	#DEBUG_VALUE: _start:G_M0 <- 150000
	#DEBUG_VALUE: _start:max_y_bounds <- 118784
	#DEBUG_VALUE: _start:max_x_bounds <- 159744
	#DEBUG_VALUE: _start:ONE <- 256
	#DEBUG_VALUE: _start:FRACTION_BITS <- 8
	#DEBUG_VALUE: soft_div:n <- $x17
	#DEBUG_VALUE: soft_div:d <- $x28
	#DEBUG_VALUE: soft_div:res <- $x22
	#DEBUG_VALUE: soft_div:current <- $x6
	.loc	0 70 15                         # program.c:70:15
	sltu	t4, a7, t3
	addi	t4, t4, -1
	and	t5, t4, t3
	and	t4, t4, t1
.Ltmp343:
	.loc	0 74 17                         # program.c:74:17
	srli	t1, t1, 1
.Ltmp344:
	#DEBUG_VALUE: soft_div:current <- $x6
	.loc	0 70 15                         # program.c:70:15
	sub	a7, a7, t5
.Ltmp345:
	or	s6, t4, s6
.Ltmp346:
	#DEBUG_VALUE: soft_div:res <- $x22
	#DEBUG_VALUE: soft_div:n <- $x17
	.loc	0 75 11                         # program.c:75:11
	srli	t3, t3, 1
.Ltmp347:
	#DEBUG_VALUE: soft_div:d <- $x28
	.loc	0 69 5                          # program.c:69:5
	bnez	t1, .LBB0_131
.Ltmp348:
.LBB0_132:                              #   in Loop: Header=BB0_2 Depth=1
	#DEBUG_VALUE: soft_div:current <- $x6
	#DEBUG_VALUE: soft_div:n <- $x17
	#DEBUG_VALUE: scaled_dy <- $x5
	#DEBUG_VALUE: _start:s1_vy <- $x25
	#DEBUG_VALUE: _start:s1_vx <- $x19
	#DEBUG_VALUE: dy <- $x11
	#DEBUG_VALUE: _start:s0_y <- [DW_OP_plus_uconst 76] [$x2+0]
	#DEBUG_VALUE: _start:s1_y <- [DW_OP_plus_uconst 68] [$x2+0]
	#DEBUG_VALUE: _start:s1_x <- [DW_OP_plus_uconst 64] [$x2+0]
	#DEBUG_VALUE: r_cubed <- $x10
	#DEBUG_VALUE: _start:s2_vy <- $x27
	#DEBUG_VALUE: _start:s2_vx <- $x24
	#DEBUG_VALUE: _start:s2_y <- $x23
	#DEBUG_VALUE: _start:s2_x <- [DW_OP_plus_uconst 88] [$x2+0]
	#DEBUG_VALUE: _start:G_M2 <- 30000
	#DEBUG_VALUE: _start:G_M1 <- 30000
	#DEBUG_VALUE: _start:G_M0 <- 150000
	#DEBUG_VALUE: _start:max_y_bounds <- 118784
	#DEBUG_VALUE: _start:max_x_bounds <- 159744
	#DEBUG_VALUE: _start:ONE <- 256
	#DEBUG_VALUE: _start:FRACTION_BITS <- 8
	.loc	0 77 18                         # program.c:77:18
	xor	a5, a5, a0
	.loc	0 77 12 is_stmt 0               # program.c:77:12
	bltz	a5, .LBB0_134
.Ltmp349:
# %bb.133:                              #   in Loop: Header=BB0_2 Depth=1
	#DEBUG_VALUE: soft_div:current <- $x6
	#DEBUG_VALUE: soft_div:n <- $x17
	#DEBUG_VALUE: scaled_dy <- $x5
	#DEBUG_VALUE: _start:s1_vy <- $x25
	#DEBUG_VALUE: _start:s1_vx <- $x19
	#DEBUG_VALUE: dy <- $x11
	#DEBUG_VALUE: _start:s0_y <- [DW_OP_plus_uconst 76] [$x2+0]
	#DEBUG_VALUE: _start:s1_y <- [DW_OP_plus_uconst 68] [$x2+0]
	#DEBUG_VALUE: _start:s1_x <- [DW_OP_plus_uconst 64] [$x2+0]
	#DEBUG_VALUE: r_cubed <- $x10
	#DEBUG_VALUE: _start:s2_vy <- $x27
	#DEBUG_VALUE: _start:s2_vx <- $x24
	#DEBUG_VALUE: _start:s2_y <- $x23
	#DEBUG_VALUE: _start:s2_x <- [DW_OP_plus_uconst 88] [$x2+0]
	#DEBUG_VALUE: _start:G_M2 <- 30000
	#DEBUG_VALUE: _start:G_M1 <- 30000
	#DEBUG_VALUE: _start:G_M0 <- 150000
	#DEBUG_VALUE: _start:max_y_bounds <- 118784
	#DEBUG_VALUE: _start:max_x_bounds <- 159744
	#DEBUG_VALUE: _start:ONE <- 256
	#DEBUG_VALUE: _start:FRACTION_BITS <- 8
	.loc	0 0 12                          # program.c:0:12
	neg	s6, s6
.Ltmp350:
.LBB0_134:                              #   in Loop: Header=BB0_2 Depth=1
	#DEBUG_VALUE: scaled_dy <- $x5
	#DEBUG_VALUE: _start:s1_vy <- $x25
	#DEBUG_VALUE: _start:s1_vx <- $x19
	#DEBUG_VALUE: dy <- $x11
	#DEBUG_VALUE: _start:s0_y <- [DW_OP_plus_uconst 76] [$x2+0]
	#DEBUG_VALUE: _start:s1_y <- [DW_OP_plus_uconst 68] [$x2+0]
	#DEBUG_VALUE: _start:s1_x <- [DW_OP_plus_uconst 64] [$x2+0]
	#DEBUG_VALUE: r_cubed <- $x10
	#DEBUG_VALUE: _start:s2_vy <- $x27
	#DEBUG_VALUE: _start:s2_vx <- $x24
	#DEBUG_VALUE: _start:s2_y <- $x23
	#DEBUG_VALUE: _start:s2_x <- [DW_OP_plus_uconst 88] [$x2+0]
	#DEBUG_VALUE: _start:G_M2 <- 30000
	#DEBUG_VALUE: _start:G_M1 <- 30000
	#DEBUG_VALUE: _start:G_M0 <- 150000
	#DEBUG_VALUE: _start:max_y_bounds <- 118784
	#DEBUG_VALUE: _start:max_x_bounds <- 159744
	#DEBUG_VALUE: _start:ONE <- 256
	#DEBUG_VALUE: _start:FRACTION_BITS <- 8
	#DEBUG_VALUE: _start:s0_vx <- undef
	#DEBUG_VALUE: _start:s0_vy <- undef
	#DEBUG_VALUE: _start:s2_vx <- undef
	#DEBUG_VALUE: soft_mul:res <- 0
	#DEBUG_VALUE: soft_mul:a <- 150000
	#DEBUG_VALUE: soft_mul:sign <- undef
	#DEBUG_VALUE: soft_mul:b <- $x7
	#DEBUG_VALUE: soft_mul:ua <- 150000
	#DEBUG_VALUE: soft_mul:ub <- $x7
	li	a5, 0
.Ltmp351:
	.loc	0 40 5 is_stmt 1                # program.c:40:5
	bltu	a1, s2, .LBB0_137
.Ltmp352:
# %bb.135:                              #   in Loop: Header=BB0_2 Depth=1
	#DEBUG_VALUE: soft_mul:ub <- $x7
	#DEBUG_VALUE: soft_mul:ua <- 150000
	#DEBUG_VALUE: soft_mul:b <- $x7
	#DEBUG_VALUE: soft_mul:a <- 150000
	#DEBUG_VALUE: soft_mul:res <- 0
	#DEBUG_VALUE: scaled_dy <- $x5
	#DEBUG_VALUE: _start:s1_vy <- $x25
	#DEBUG_VALUE: _start:s1_vx <- $x19
	#DEBUG_VALUE: dy <- $x11
	#DEBUG_VALUE: _start:s0_y <- [DW_OP_plus_uconst 76] [$x2+0]
	#DEBUG_VALUE: _start:s1_y <- [DW_OP_plus_uconst 68] [$x2+0]
	#DEBUG_VALUE: _start:s1_x <- [DW_OP_plus_uconst 64] [$x2+0]
	#DEBUG_VALUE: r_cubed <- $x10
	#DEBUG_VALUE: _start:s2_vy <- $x27
	#DEBUG_VALUE: _start:s2_y <- $x23
	#DEBUG_VALUE: _start:s2_x <- [DW_OP_plus_uconst 88] [$x2+0]
	#DEBUG_VALUE: _start:G_M2 <- 30000
	#DEBUG_VALUE: _start:G_M1 <- 30000
	#DEBUG_VALUE: _start:G_M0 <- 150000
	#DEBUG_VALUE: _start:max_y_bounds <- 118784
	#DEBUG_VALUE: _start:max_x_bounds <- 159744
	#DEBUG_VALUE: _start:ONE <- 256
	#DEBUG_VALUE: _start:FRACTION_BITS <- 8
	.loc	0 0 5 is_stmt 0                 # program.c:0:5
	lw	a1, 8(sp)                       # 4-byte Folded Reload
.Ltmp353:
.LBB0_136:                              #   Parent Loop BB0_2 Depth=1
                                        # =>  This Inner Loop Header: Depth=2
	#DEBUG_VALUE: soft_mul:ub <- $x7
	#DEBUG_VALUE: soft_mul:a <- 150000
	#DEBUG_VALUE: scaled_dy <- $x5
	#DEBUG_VALUE: _start:s1_vy <- $x25
	#DEBUG_VALUE: _start:s1_vx <- $x19
	#DEBUG_VALUE: _start:s0_y <- [DW_OP_plus_uconst 76] [$x2+0]
	#DEBUG_VALUE: _start:s1_y <- [DW_OP_plus_uconst 68] [$x2+0]
	#DEBUG_VALUE: _start:s1_x <- [DW_OP_plus_uconst 64] [$x2+0]
	#DEBUG_VALUE: r_cubed <- $x10
	#DEBUG_VALUE: _start:s2_vy <- $x27
	#DEBUG_VALUE: _start:s2_y <- $x23
	#DEBUG_VALUE: _start:s2_x <- [DW_OP_plus_uconst 88] [$x2+0]
	#DEBUG_VALUE: _start:G_M2 <- 30000
	#DEBUG_VALUE: _start:G_M1 <- 30000
	#DEBUG_VALUE: _start:G_M0 <- 150000
	#DEBUG_VALUE: _start:max_y_bounds <- 118784
	#DEBUG_VALUE: _start:max_x_bounds <- 159744
	#DEBUG_VALUE: _start:ONE <- 256
	#DEBUG_VALUE: _start:FRACTION_BITS <- 8
	#DEBUG_VALUE: soft_mul:res <- $x15
	#DEBUG_VALUE: soft_mul:ua <- $x11
	#DEBUG_VALUE: soft_mul:ub <- $x7
	.loc	0 41 16 is_stmt 1               # program.c:41:16
	slli	a7, t2, 31
.Ltmp354:
	.loc	0 43 12                         # program.c:43:12
	srli	t2, t2, 1
.Ltmp355:
	#DEBUG_VALUE: soft_mul:ub <- $x7
	.loc	0 41 16                         # program.c:41:16
	srai	a7, a7, 31
	and	a7, a7, a1
	add	a5, a7, a5
.Ltmp356:
	#DEBUG_VALUE: soft_mul:res <- $x15
	.loc	0 42 12                         # program.c:42:12
	slli	a1, a1, 1
.Ltmp357:
	#DEBUG_VALUE: soft_mul:ua <- $x11
	.loc	0 40 5                          # program.c:40:5
	bnez	t2, .LBB0_136
.Ltmp358:
.LBB0_137:                              #   in Loop: Header=BB0_2 Depth=1
	#DEBUG_VALUE: scaled_dy <- $x5
	#DEBUG_VALUE: _start:s1_vy <- $x25
	#DEBUG_VALUE: _start:s1_vx <- $x19
	#DEBUG_VALUE: _start:s0_y <- [DW_OP_plus_uconst 76] [$x2+0]
	#DEBUG_VALUE: _start:s1_y <- [DW_OP_plus_uconst 68] [$x2+0]
	#DEBUG_VALUE: _start:s1_x <- [DW_OP_plus_uconst 64] [$x2+0]
	#DEBUG_VALUE: r_cubed <- $x10
	#DEBUG_VALUE: _start:s2_vy <- $x27
	#DEBUG_VALUE: _start:s2_y <- $x23
	#DEBUG_VALUE: _start:s2_x <- [DW_OP_plus_uconst 88] [$x2+0]
	#DEBUG_VALUE: _start:G_M2 <- 30000
	#DEBUG_VALUE: _start:G_M1 <- 30000
	#DEBUG_VALUE: _start:G_M0 <- 150000
	#DEBUG_VALUE: _start:max_y_bounds <- 118784
	#DEBUG_VALUE: _start:max_x_bounds <- 159744
	#DEBUG_VALUE: _start:ONE <- 256
	#DEBUG_VALUE: _start:FRACTION_BITS <- 8
	#DEBUG_VALUE: _start:s0_vx <- undef
	#DEBUG_VALUE: _start:s0_vy <- undef
	#DEBUG_VALUE: soft_div:num <- undef
	#DEBUG_VALUE: soft_div:den <- $x10
	.loc	0 0 5 is_stmt 0                 # program.c:0:5
	sw	s7, 84(sp)                      # 4-byte Folded Spill
.Ltmp359:
	#DEBUG_VALUE: _start:s2_y <- [DW_OP_plus_uconst 84] [$x2+0]
	.loc	0 50 13 is_stmt 1               # program.c:50:13
	beqz	a0, .LBB0_142
.Ltmp360:
# %bb.138:                              #   in Loop: Header=BB0_2 Depth=1
	#DEBUG_VALUE: _start:s2_y <- [DW_OP_plus_uconst 84] [$x2+0]
	#DEBUG_VALUE: scaled_dy <- $x5
	#DEBUG_VALUE: _start:s1_vy <- $x25
	#DEBUG_VALUE: _start:s1_vx <- $x19
	#DEBUG_VALUE: _start:s0_y <- [DW_OP_plus_uconst 76] [$x2+0]
	#DEBUG_VALUE: _start:s1_y <- [DW_OP_plus_uconst 68] [$x2+0]
	#DEBUG_VALUE: _start:s1_x <- [DW_OP_plus_uconst 64] [$x2+0]
	#DEBUG_VALUE: r_cubed <- $x10
	#DEBUG_VALUE: _start:s2_vy <- $x27
	#DEBUG_VALUE: _start:s2_x <- [DW_OP_plus_uconst 88] [$x2+0]
	#DEBUG_VALUE: _start:G_M2 <- 30000
	#DEBUG_VALUE: _start:G_M1 <- 30000
	#DEBUG_VALUE: _start:G_M0 <- 150000
	#DEBUG_VALUE: _start:max_y_bounds <- 118784
	#DEBUG_VALUE: _start:max_x_bounds <- 159744
	#DEBUG_VALUE: _start:ONE <- 256
	#DEBUG_VALUE: _start:FRACTION_BITS <- 8
	.loc	0 0 13 is_stmt 0                # program.c:0:13
	mv	a1, a5
.Ltmp361:
	.loc	0 45 12 is_stmt 1               # program.c:45:12
	bgez	t0, .LBB0_140
.Ltmp362:
# %bb.139:                              #   in Loop: Header=BB0_2 Depth=1
	#DEBUG_VALUE: _start:s2_y <- [DW_OP_plus_uconst 84] [$x2+0]
	#DEBUG_VALUE: scaled_dy <- $x5
	#DEBUG_VALUE: _start:s1_vy <- $x25
	#DEBUG_VALUE: _start:s1_vx <- $x19
	#DEBUG_VALUE: _start:s0_y <- [DW_OP_plus_uconst 76] [$x2+0]
	#DEBUG_VALUE: _start:s1_y <- [DW_OP_plus_uconst 68] [$x2+0]
	#DEBUG_VALUE: _start:s1_x <- [DW_OP_plus_uconst 64] [$x2+0]
	#DEBUG_VALUE: r_cubed <- $x10
	#DEBUG_VALUE: _start:s2_vy <- $x27
	#DEBUG_VALUE: _start:s2_x <- [DW_OP_plus_uconst 88] [$x2+0]
	#DEBUG_VALUE: _start:G_M2 <- 30000
	#DEBUG_VALUE: _start:G_M1 <- 30000
	#DEBUG_VALUE: _start:G_M0 <- 150000
	#DEBUG_VALUE: _start:max_y_bounds <- 118784
	#DEBUG_VALUE: _start:max_x_bounds <- 159744
	#DEBUG_VALUE: _start:ONE <- 256
	#DEBUG_VALUE: _start:FRACTION_BITS <- 8
	.loc	0 0 12 is_stmt 0                # program.c:0:12
	neg	a1, a5
.Ltmp363:
.LBB0_140:                              #   in Loop: Header=BB0_2 Depth=1
	#DEBUG_VALUE: _start:s2_y <- [DW_OP_plus_uconst 84] [$x2+0]
	#DEBUG_VALUE: scaled_dy <- $x5
	#DEBUG_VALUE: _start:s1_vy <- $x25
	#DEBUG_VALUE: _start:s1_vx <- $x19
	#DEBUG_VALUE: _start:s0_y <- [DW_OP_plus_uconst 76] [$x2+0]
	#DEBUG_VALUE: _start:s1_y <- [DW_OP_plus_uconst 68] [$x2+0]
	#DEBUG_VALUE: _start:s1_x <- [DW_OP_plus_uconst 64] [$x2+0]
	#DEBUG_VALUE: r_cubed <- $x10
	#DEBUG_VALUE: _start:s2_vy <- $x27
	#DEBUG_VALUE: _start:s2_x <- [DW_OP_plus_uconst 88] [$x2+0]
	#DEBUG_VALUE: _start:G_M2 <- 30000
	#DEBUG_VALUE: _start:G_M1 <- 30000
	#DEBUG_VALUE: _start:G_M0 <- 150000
	#DEBUG_VALUE: _start:max_y_bounds <- 118784
	#DEBUG_VALUE: _start:max_x_bounds <- 159744
	#DEBUG_VALUE: _start:ONE <- 256
	#DEBUG_VALUE: _start:FRACTION_BITS <- 8
	#DEBUG_VALUE: soft_div:num <- $x11
	#DEBUG_VALUE: soft_div:sign <- 1
	.loc	0 52 13 is_stmt 1               # program.c:52:13
	srai	a7, a5, 31
.Ltmp364:
	.loc	0 53 13                         # program.c:53:13
	xor	t0, a2, a4
.Ltmp365:
	.loc	0 52 13                         # program.c:52:13
	xor	a2, a5, a7
	sub	a2, a2, a7
.Ltmp366:
	#DEBUG_VALUE: soft_div:num <- $x12
	#DEBUG_VALUE: soft_div:sign <- undef
	#DEBUG_VALUE: soft_div:n <- $x12
	.loc	0 53 13                         # program.c:53:13
	sub	a5, t0, a4
.Ltmp367:
	#DEBUG_VALUE: soft_div:den <- $x15
	#DEBUG_VALUE: soft_div:d <- $x15
	#DEBUG_VALUE: soft_div:res <- 0
	#DEBUG_VALUE: soft_div:current <- 1
	.loc	0 60 5                          # program.c:60:5
	bgeu	a2, a5, .LBB0_143
.Ltmp368:
# %bb.141:                              #   in Loop: Header=BB0_2 Depth=1
	#DEBUG_VALUE: soft_div:current <- 1
	#DEBUG_VALUE: soft_div:res <- 0
	#DEBUG_VALUE: soft_div:d <- $x15
	#DEBUG_VALUE: soft_div:den <- $x15
	#DEBUG_VALUE: soft_div:n <- $x12
	#DEBUG_VALUE: soft_div:num <- $x12
	#DEBUG_VALUE: _start:s2_y <- [DW_OP_plus_uconst 84] [$x2+0]
	#DEBUG_VALUE: _start:s1_vy <- $x25
	#DEBUG_VALUE: _start:s1_vx <- $x19
	#DEBUG_VALUE: _start:s0_y <- [DW_OP_plus_uconst 76] [$x2+0]
	#DEBUG_VALUE: _start:s1_y <- [DW_OP_plus_uconst 68] [$x2+0]
	#DEBUG_VALUE: _start:s1_x <- [DW_OP_plus_uconst 64] [$x2+0]
	#DEBUG_VALUE: r_cubed <- $x10
	#DEBUG_VALUE: _start:s2_vy <- $x27
	#DEBUG_VALUE: _start:s2_x <- [DW_OP_plus_uconst 88] [$x2+0]
	#DEBUG_VALUE: _start:G_M2 <- 30000
	#DEBUG_VALUE: _start:G_M1 <- 30000
	#DEBUG_VALUE: _start:G_M0 <- 150000
	#DEBUG_VALUE: _start:max_y_bounds <- 118784
	#DEBUG_VALUE: _start:max_x_bounds <- 159744
	#DEBUG_VALUE: _start:ONE <- 256
	#DEBUG_VALUE: _start:FRACTION_BITS <- 8
	.loc	0 0 5 is_stmt 0                 # program.c:0:5
	li	a4, 1
	.loc	0 60 5                          # program.c:60:5
	j	.LBB0_145
.Ltmp369:
.LBB0_142:                              #   in Loop: Header=BB0_2 Depth=1
	#DEBUG_VALUE: _start:s2_y <- [DW_OP_plus_uconst 84] [$x2+0]
	#DEBUG_VALUE: soft_div:den <- $x10
	#DEBUG_VALUE: scaled_dy <- $x5
	#DEBUG_VALUE: _start:s1_vy <- $x25
	#DEBUG_VALUE: _start:s1_vx <- $x19
	#DEBUG_VALUE: _start:s0_y <- [DW_OP_plus_uconst 76] [$x2+0]
	#DEBUG_VALUE: _start:s1_y <- [DW_OP_plus_uconst 68] [$x2+0]
	#DEBUG_VALUE: _start:s1_x <- [DW_OP_plus_uconst 64] [$x2+0]
	#DEBUG_VALUE: r_cubed <- $x10
	#DEBUG_VALUE: _start:s2_vy <- $x27
	#DEBUG_VALUE: _start:s2_x <- [DW_OP_plus_uconst 88] [$x2+0]
	#DEBUG_VALUE: _start:G_M2 <- 30000
	#DEBUG_VALUE: _start:G_M1 <- 30000
	#DEBUG_VALUE: _start:G_M0 <- 150000
	#DEBUG_VALUE: _start:max_y_bounds <- 118784
	#DEBUG_VALUE: _start:max_x_bounds <- 159744
	#DEBUG_VALUE: _start:ONE <- 256
	#DEBUG_VALUE: _start:FRACTION_BITS <- 8
	.loc	0 0 5                           # program.c:0:5
	li	s7, 0
.Ltmp370:
	.loc	0 50 13 is_stmt 1               # program.c:50:13
	j	.LBB0_150
.Ltmp371:
.LBB0_143:                              #   in Loop: Header=BB0_2 Depth=1
	#DEBUG_VALUE: soft_div:current <- 1
	#DEBUG_VALUE: soft_div:res <- 0
	#DEBUG_VALUE: soft_div:d <- $x15
	#DEBUG_VALUE: soft_div:den <- $x15
	#DEBUG_VALUE: soft_div:n <- $x12
	#DEBUG_VALUE: soft_div:num <- $x12
	#DEBUG_VALUE: _start:s2_y <- [DW_OP_plus_uconst 84] [$x2+0]
	#DEBUG_VALUE: _start:s1_vy <- $x25
	#DEBUG_VALUE: _start:s1_vx <- $x19
	#DEBUG_VALUE: _start:s0_y <- [DW_OP_plus_uconst 76] [$x2+0]
	#DEBUG_VALUE: _start:s1_y <- [DW_OP_plus_uconst 68] [$x2+0]
	#DEBUG_VALUE: _start:s1_x <- [DW_OP_plus_uconst 64] [$x2+0]
	#DEBUG_VALUE: r_cubed <- $x10
	#DEBUG_VALUE: _start:s2_vy <- $x27
	#DEBUG_VALUE: _start:s2_x <- [DW_OP_plus_uconst 88] [$x2+0]
	#DEBUG_VALUE: _start:G_M2 <- 30000
	#DEBUG_VALUE: _start:G_M1 <- 30000
	#DEBUG_VALUE: _start:G_M0 <- 150000
	#DEBUG_VALUE: _start:max_y_bounds <- 118784
	#DEBUG_VALUE: _start:max_x_bounds <- 159744
	#DEBUG_VALUE: _start:ONE <- 256
	#DEBUG_VALUE: _start:FRACTION_BITS <- 8
	.loc	0 0 13 is_stmt 0                # program.c:0:13
	li	a4, 1
.Ltmp372:
.LBB0_144:                              #   Parent Loop BB0_2 Depth=1
                                        # =>  This Inner Loop Header: Depth=2
	#DEBUG_VALUE: soft_div:res <- 0
	#DEBUG_VALUE: soft_div:d <- $x15
	#DEBUG_VALUE: soft_div:n <- $x12
	#DEBUG_VALUE: soft_div:num <- $x12
	#DEBUG_VALUE: _start:s2_y <- [DW_OP_plus_uconst 84] [$x2+0]
	#DEBUG_VALUE: _start:s1_vy <- $x25
	#DEBUG_VALUE: _start:s1_vx <- $x19
	#DEBUG_VALUE: _start:s0_y <- [DW_OP_plus_uconst 76] [$x2+0]
	#DEBUG_VALUE: _start:s1_y <- [DW_OP_plus_uconst 68] [$x2+0]
	#DEBUG_VALUE: _start:s1_x <- [DW_OP_plus_uconst 64] [$x2+0]
	#DEBUG_VALUE: r_cubed <- $x10
	#DEBUG_VALUE: _start:s2_vy <- $x27
	#DEBUG_VALUE: _start:s2_x <- [DW_OP_plus_uconst 88] [$x2+0]
	#DEBUG_VALUE: _start:G_M2 <- 30000
	#DEBUG_VALUE: _start:G_M1 <- 30000
	#DEBUG_VALUE: _start:G_M0 <- 150000
	#DEBUG_VALUE: _start:max_y_bounds <- 118784
	#DEBUG_VALUE: _start:max_x_bounds <- 159744
	#DEBUG_VALUE: _start:ONE <- 256
	#DEBUG_VALUE: _start:FRACTION_BITS <- 8
	#DEBUG_VALUE: soft_div:d <- $x15
	#DEBUG_VALUE: soft_div:current <- $x14
	.loc	0 61 11 is_stmt 1               # program.c:61:11
	slli	a5, a5, 1
.Ltmp373:
	#DEBUG_VALUE: soft_div:d <- $x15
	.loc	0 62 17                         # program.c:62:17
	slli	a4, a4, 1
.Ltmp374:
	#DEBUG_VALUE: soft_div:current <- $x14
	.loc	0 60 5                          # program.c:60:5
	bgeu	a2, a5, .LBB0_144
.Ltmp375:
.LBB0_145:                              #   in Loop: Header=BB0_2 Depth=1
	#DEBUG_VALUE: soft_div:res <- 0
	#DEBUG_VALUE: soft_div:d <- $x15
	#DEBUG_VALUE: soft_div:n <- $x12
	#DEBUG_VALUE: soft_div:num <- $x12
	#DEBUG_VALUE: _start:s2_y <- [DW_OP_plus_uconst 84] [$x2+0]
	#DEBUG_VALUE: _start:s1_vy <- $x25
	#DEBUG_VALUE: _start:s1_vx <- $x19
	#DEBUG_VALUE: _start:s0_y <- [DW_OP_plus_uconst 76] [$x2+0]
	#DEBUG_VALUE: _start:s1_y <- [DW_OP_plus_uconst 68] [$x2+0]
	#DEBUG_VALUE: _start:s1_x <- [DW_OP_plus_uconst 64] [$x2+0]
	#DEBUG_VALUE: r_cubed <- $x10
	#DEBUG_VALUE: _start:s2_vy <- $x27
	#DEBUG_VALUE: _start:s2_x <- [DW_OP_plus_uconst 88] [$x2+0]
	#DEBUG_VALUE: _start:G_M2 <- 30000
	#DEBUG_VALUE: _start:G_M1 <- 30000
	#DEBUG_VALUE: _start:G_M0 <- 150000
	#DEBUG_VALUE: _start:max_y_bounds <- 118784
	#DEBUG_VALUE: _start:max_x_bounds <- 159744
	#DEBUG_VALUE: _start:ONE <- 256
	#DEBUG_VALUE: _start:FRACTION_BITS <- 8
	.loc	0 0 5 is_stmt 0                 # program.c:0:5
	sltiu	a7, a4, 2
	xori	a7, a7, 1
.Ltmp376:
	#DEBUG_VALUE: soft_div:d <- [DW_OP_LLVM_arg 0, DW_OP_LLVM_arg 1, DW_OP_shr, DW_OP_stack_value] $x15, $x17
	li	s7, 0
.Ltmp377:
	.loc	0 64 15 is_stmt 1               # program.c:64:15
	srl	a4, a4, a7
.Ltmp378:
	#DEBUG_VALUE: soft_div:n <- $x12
	#DEBUG_VALUE: soft_div:res <- 0
	#DEBUG_VALUE: soft_div:current <- $x14
	.loc	0 69 5                          # program.c:69:5
	beqz	a4, .LBB0_148
.Ltmp379:
# %bb.146:                              #   in Loop: Header=BB0_2 Depth=1
	#DEBUG_VALUE: soft_div:d <- [DW_OP_LLVM_arg 0, DW_OP_LLVM_arg 1, DW_OP_shr, DW_OP_stack_value] $x15, $x17
	#DEBUG_VALUE: soft_div:current <- $x14
	#DEBUG_VALUE: soft_div:res <- 0
	#DEBUG_VALUE: soft_div:n <- $x12
	#DEBUG_VALUE: soft_div:num <- $x12
	#DEBUG_VALUE: _start:s2_y <- [DW_OP_plus_uconst 84] [$x2+0]
	#DEBUG_VALUE: _start:s1_vy <- $x25
	#DEBUG_VALUE: _start:s1_vx <- $x19
	#DEBUG_VALUE: _start:s0_y <- [DW_OP_plus_uconst 76] [$x2+0]
	#DEBUG_VALUE: _start:s1_y <- [DW_OP_plus_uconst 68] [$x2+0]
	#DEBUG_VALUE: _start:s1_x <- [DW_OP_plus_uconst 64] [$x2+0]
	#DEBUG_VALUE: r_cubed <- $x10
	#DEBUG_VALUE: _start:s2_vy <- $x27
	#DEBUG_VALUE: _start:s2_x <- [DW_OP_plus_uconst 88] [$x2+0]
	#DEBUG_VALUE: _start:G_M2 <- 30000
	#DEBUG_VALUE: _start:G_M1 <- 30000
	#DEBUG_VALUE: _start:G_M0 <- 150000
	#DEBUG_VALUE: _start:max_y_bounds <- 118784
	#DEBUG_VALUE: _start:max_x_bounds <- 159744
	#DEBUG_VALUE: _start:ONE <- 256
	#DEBUG_VALUE: _start:FRACTION_BITS <- 8
	.loc	0 64 15                         # program.c:64:15
	srl	a5, a5, a7
.Ltmp380:
	#DEBUG_VALUE: soft_div:d <- $x15
.LBB0_147:                              #   Parent Loop BB0_2 Depth=1
                                        # =>  This Inner Loop Header: Depth=2
	#DEBUG_VALUE: soft_div:current <- $x14
	#DEBUG_VALUE: soft_div:d <- $x15
	#DEBUG_VALUE: soft_div:n <- $x12
	#DEBUG_VALUE: _start:s2_y <- [DW_OP_plus_uconst 84] [$x2+0]
	#DEBUG_VALUE: _start:s1_vy <- $x25
	#DEBUG_VALUE: _start:s1_vx <- $x19
	#DEBUG_VALUE: _start:s0_y <- [DW_OP_plus_uconst 76] [$x2+0]
	#DEBUG_VALUE: _start:s1_y <- [DW_OP_plus_uconst 68] [$x2+0]
	#DEBUG_VALUE: _start:s1_x <- [DW_OP_plus_uconst 64] [$x2+0]
	#DEBUG_VALUE: r_cubed <- $x10
	#DEBUG_VALUE: _start:s2_vy <- $x27
	#DEBUG_VALUE: _start:s2_x <- [DW_OP_plus_uconst 88] [$x2+0]
	#DEBUG_VALUE: _start:G_M2 <- 30000
	#DEBUG_VALUE: _start:G_M1 <- 30000
	#DEBUG_VALUE: _start:G_M0 <- 150000
	#DEBUG_VALUE: _start:max_y_bounds <- 118784
	#DEBUG_VALUE: _start:max_x_bounds <- 159744
	#DEBUG_VALUE: _start:ONE <- 256
	#DEBUG_VALUE: _start:FRACTION_BITS <- 8
	#DEBUG_VALUE: soft_div:n <- $x12
	#DEBUG_VALUE: soft_div:d <- $x15
	#DEBUG_VALUE: soft_div:res <- $x23
	#DEBUG_VALUE: soft_div:current <- $x14
	.loc	0 70 15                         # program.c:70:15
	sltu	a7, a2, a5
	addi	a7, a7, -1
	and	t0, a7, a5
	and	a7, a7, a4
.Ltmp381:
	.loc	0 74 17                         # program.c:74:17
	srli	a4, a4, 1
.Ltmp382:
	#DEBUG_VALUE: soft_div:current <- $x14
	.loc	0 70 15                         # program.c:70:15
	sub	a2, a2, t0
.Ltmp383:
	or	s7, a7, s7
.Ltmp384:
	#DEBUG_VALUE: soft_div:res <- $x23
	#DEBUG_VALUE: soft_div:n <- $x12
	.loc	0 75 11                         # program.c:75:11
	srli	a5, a5, 1
.Ltmp385:
	#DEBUG_VALUE: soft_div:d <- $x15
	.loc	0 69 5                          # program.c:69:5
	bnez	a4, .LBB0_147
.Ltmp386:
.LBB0_148:                              #   in Loop: Header=BB0_2 Depth=1
	#DEBUG_VALUE: soft_div:current <- $x14
	#DEBUG_VALUE: soft_div:n <- $x12
	#DEBUG_VALUE: _start:s2_y <- [DW_OP_plus_uconst 84] [$x2+0]
	#DEBUG_VALUE: _start:s1_vy <- $x25
	#DEBUG_VALUE: _start:s1_vx <- $x19
	#DEBUG_VALUE: _start:s0_y <- [DW_OP_plus_uconst 76] [$x2+0]
	#DEBUG_VALUE: _start:s1_y <- [DW_OP_plus_uconst 68] [$x2+0]
	#DEBUG_VALUE: _start:s1_x <- [DW_OP_plus_uconst 64] [$x2+0]
	#DEBUG_VALUE: r_cubed <- $x10
	#DEBUG_VALUE: _start:s2_vy <- $x27
	#DEBUG_VALUE: _start:s2_x <- [DW_OP_plus_uconst 88] [$x2+0]
	#DEBUG_VALUE: _start:G_M2 <- 30000
	#DEBUG_VALUE: _start:G_M1 <- 30000
	#DEBUG_VALUE: _start:G_M0 <- 150000
	#DEBUG_VALUE: _start:max_y_bounds <- 118784
	#DEBUG_VALUE: _start:max_x_bounds <- 159744
	#DEBUG_VALUE: _start:ONE <- 256
	#DEBUG_VALUE: _start:FRACTION_BITS <- 8
	.loc	0 77 18                         # program.c:77:18
	xor	a0, a1, a0
.Ltmp387:
	.loc	0 77 12 is_stmt 0               # program.c:77:12
	bltz	a0, .LBB0_150
.Ltmp388:
# %bb.149:                              #   in Loop: Header=BB0_2 Depth=1
	#DEBUG_VALUE: soft_div:current <- $x14
	#DEBUG_VALUE: soft_div:n <- $x12
	#DEBUG_VALUE: _start:s2_y <- [DW_OP_plus_uconst 84] [$x2+0]
	#DEBUG_VALUE: _start:s1_vy <- $x25
	#DEBUG_VALUE: _start:s1_vx <- $x19
	#DEBUG_VALUE: _start:s0_y <- [DW_OP_plus_uconst 76] [$x2+0]
	#DEBUG_VALUE: _start:s1_y <- [DW_OP_plus_uconst 68] [$x2+0]
	#DEBUG_VALUE: _start:s1_x <- [DW_OP_plus_uconst 64] [$x2+0]
	#DEBUG_VALUE: _start:s2_vy <- $x27
	#DEBUG_VALUE: _start:s2_x <- [DW_OP_plus_uconst 88] [$x2+0]
	#DEBUG_VALUE: _start:G_M2 <- 30000
	#DEBUG_VALUE: _start:G_M1 <- 30000
	#DEBUG_VALUE: _start:G_M0 <- 150000
	#DEBUG_VALUE: _start:max_y_bounds <- 118784
	#DEBUG_VALUE: _start:max_x_bounds <- 159744
	#DEBUG_VALUE: _start:ONE <- 256
	#DEBUG_VALUE: _start:FRACTION_BITS <- 8
	.loc	0 0 12                          # program.c:0:12
	neg	s7, s7
.Ltmp389:
.LBB0_150:                              #   in Loop: Header=BB0_2 Depth=1
	#DEBUG_VALUE: _start:s2_y <- [DW_OP_plus_uconst 84] [$x2+0]
	#DEBUG_VALUE: _start:s1_vy <- $x25
	#DEBUG_VALUE: _start:s1_vx <- $x19
	#DEBUG_VALUE: _start:s0_y <- [DW_OP_plus_uconst 76] [$x2+0]
	#DEBUG_VALUE: _start:s1_y <- [DW_OP_plus_uconst 68] [$x2+0]
	#DEBUG_VALUE: _start:s1_x <- [DW_OP_plus_uconst 64] [$x2+0]
	#DEBUG_VALUE: _start:s2_vy <- $x27
	#DEBUG_VALUE: _start:s2_x <- [DW_OP_plus_uconst 88] [$x2+0]
	#DEBUG_VALUE: _start:G_M2 <- 30000
	#DEBUG_VALUE: _start:G_M1 <- 30000
	#DEBUG_VALUE: _start:G_M0 <- 150000
	#DEBUG_VALUE: _start:max_y_bounds <- 118784
	#DEBUG_VALUE: _start:max_x_bounds <- 159744
	#DEBUG_VALUE: _start:ONE <- 256
	#DEBUG_VALUE: _start:FRACTION_BITS <- 8
	#DEBUG_VALUE: _start:s0_vx <- undef
	#DEBUG_VALUE: _start:s0_vy <- undef
	#DEBUG_VALUE: _start:s2_vy <- undef
	lw	a0, 64(sp)                      # 4-byte Folded Reload
	lw	a5, 88(sp)                      # 4-byte Folded Reload
	.loc	0 188 19 is_stmt 1              # program.c:188:19
	sub	a5, a5, a0
.Ltmp390:
	#DEBUG_VALUE: dx <- $x15
	.loc	0 0 19 is_stmt 0                # program.c:0:19
	lw	a0, 84(sp)                      # 4-byte Folded Reload
	lw	a1, 68(sp)                      # 4-byte Folded Reload
	.loc	0 189 19 is_stmt 1              # program.c:189:19
	sub	a1, a0, a1
.Ltmp391:
	#DEBUG_VALUE: dy <- $x11
	.loc	0 190 18                        # program.c:190:18
	srai	a4, a5, 31
	.loc	0 191 18                        # program.c:191:18
	srai	a0, a1, 31
	.loc	0 190 18                        # program.c:190:18
	xor	a2, a5, a4
	.loc	0 191 18                        # program.c:191:18
	xor	a7, a1, a0
	.loc	0 190 18                        # program.c:190:18
	sub	a2, a2, a4
.Ltmp392:
	#DEBUG_VALUE: abs_dx <- $x12
	.loc	0 191 18                        # program.c:191:18
	sub	a0, a7, a0
.Ltmp393:
	#DEBUG_VALUE: abs_dy <- $x10
	.loc	0 192 20                        # program.c:192:20
	add	a2, a2, a0
.Ltmp394:
	#DEBUG_VALUE: r <- $x12
	.loc	0 0 20 is_stmt 0                # program.c:0:20
	li	a0, 15
.Ltmp395:
	slli	a0, a0, 8
.Ltmp396:
	.loc	0 193 15 is_stmt 1              # program.c:193:15
	bltu	a0, a2, .LBB0_152
.Ltmp397:
# %bb.151:                              #   in Loop: Header=BB0_2 Depth=1
	#DEBUG_VALUE: r <- $x12
	#DEBUG_VALUE: _start:s2_y <- [DW_OP_plus_uconst 84] [$x2+0]
	#DEBUG_VALUE: _start:s1_vy <- $x25
	#DEBUG_VALUE: _start:s1_vx <- $x19
	#DEBUG_VALUE: dy <- $x11
	#DEBUG_VALUE: dx <- $x15
	#DEBUG_VALUE: _start:s0_y <- [DW_OP_plus_uconst 76] [$x2+0]
	#DEBUG_VALUE: _start:s1_y <- [DW_OP_plus_uconst 68] [$x2+0]
	#DEBUG_VALUE: _start:s1_x <- [DW_OP_plus_uconst 64] [$x2+0]
	#DEBUG_VALUE: _start:s2_x <- [DW_OP_plus_uconst 88] [$x2+0]
	#DEBUG_VALUE: _start:G_M2 <- 30000
	#DEBUG_VALUE: _start:G_M1 <- 30000
	#DEBUG_VALUE: _start:G_M0 <- 150000
	#DEBUG_VALUE: _start:max_y_bounds <- 118784
	#DEBUG_VALUE: _start:max_x_bounds <- 159744
	#DEBUG_VALUE: _start:ONE <- 256
	#DEBUG_VALUE: _start:FRACTION_BITS <- 8
	.loc	0 0 15 is_stmt 0                # program.c:0:15
	mv	a2, a0
.Ltmp398:
.LBB0_152:                              #   in Loop: Header=BB0_2 Depth=1
	#DEBUG_VALUE: _start:s2_y <- [DW_OP_plus_uconst 84] [$x2+0]
	#DEBUG_VALUE: _start:s1_vy <- $x25
	#DEBUG_VALUE: _start:s1_vx <- $x19
	#DEBUG_VALUE: dy <- $x11
	#DEBUG_VALUE: dx <- $x15
	#DEBUG_VALUE: _start:s0_y <- [DW_OP_plus_uconst 76] [$x2+0]
	#DEBUG_VALUE: _start:s1_y <- [DW_OP_plus_uconst 68] [$x2+0]
	#DEBUG_VALUE: _start:s1_x <- [DW_OP_plus_uconst 64] [$x2+0]
	#DEBUG_VALUE: _start:s2_x <- [DW_OP_plus_uconst 88] [$x2+0]
	#DEBUG_VALUE: _start:G_M2 <- 30000
	#DEBUG_VALUE: _start:G_M1 <- 30000
	#DEBUG_VALUE: _start:G_M0 <- 150000
	#DEBUG_VALUE: _start:max_y_bounds <- 118784
	#DEBUG_VALUE: _start:max_x_bounds <- 159744
	#DEBUG_VALUE: _start:ONE <- 256
	#DEBUG_VALUE: _start:FRACTION_BITS <- 8
	li	a0, 0
	add	s10, s10, a3
.Ltmp399:
	#DEBUG_VALUE: _start:s0_vx <- $x26
	.loc	0 194 19 is_stmt 1              # program.c:194:19
	srli	a3, a2, 8
.Ltmp400:
	#DEBUG_VALUE: r_int <- $x13
	#DEBUG_VALUE: soft_mul:a <- $x13
	#DEBUG_VALUE: soft_mul:b <- $x13
	#DEBUG_VALUE: soft_mul:ua <- $x13
	#DEBUG_VALUE: soft_mul:ub <- $x13
	#DEBUG_VALUE: soft_mul:res <- 0
	#DEBUG_VALUE: soft_mul:sign <- 1
	.loc	0 0 19 is_stmt 0                # program.c:0:19
	add	s5, s5, a6
.Ltmp401:
	#DEBUG_VALUE: _start:s0_vy <- $x21
	#DEBUG_VALUE: r <- undef
	mv	a2, a3
	mv	a6, a3
.Ltmp402:
.LBB0_153:                              #   Parent Loop BB0_2 Depth=1
                                        # =>  This Inner Loop Header: Depth=2
	#DEBUG_VALUE: soft_mul:sign <- 1
	#DEBUG_VALUE: soft_mul:b <- $x13
	#DEBUG_VALUE: soft_mul:a <- $x13
	#DEBUG_VALUE: _start:s2_y <- [DW_OP_plus_uconst 84] [$x2+0]
	#DEBUG_VALUE: _start:s1_vy <- $x25
	#DEBUG_VALUE: _start:s1_vx <- $x19
	#DEBUG_VALUE: _start:s0_vy <- $x21
	#DEBUG_VALUE: _start:s0_vx <- $x26
	#DEBUG_VALUE: dy <- $x11
	#DEBUG_VALUE: dx <- $x15
	#DEBUG_VALUE: _start:s0_y <- [DW_OP_plus_uconst 76] [$x2+0]
	#DEBUG_VALUE: _start:s1_y <- [DW_OP_plus_uconst 68] [$x2+0]
	#DEBUG_VALUE: _start:s1_x <- [DW_OP_plus_uconst 64] [$x2+0]
	#DEBUG_VALUE: r_int <- $x13
	#DEBUG_VALUE: _start:s2_x <- [DW_OP_plus_uconst 88] [$x2+0]
	#DEBUG_VALUE: _start:G_M2 <- 30000
	#DEBUG_VALUE: _start:G_M1 <- 30000
	#DEBUG_VALUE: _start:G_M0 <- 150000
	#DEBUG_VALUE: _start:max_y_bounds <- 118784
	#DEBUG_VALUE: _start:max_x_bounds <- 159744
	#DEBUG_VALUE: _start:ONE <- 256
	#DEBUG_VALUE: _start:FRACTION_BITS <- 8
	#DEBUG_VALUE: soft_mul:ua <- $x16
	#DEBUG_VALUE: soft_mul:ub <- $x12
	#DEBUG_VALUE: soft_mul:res <- $x10
	.loc	0 41 16 is_stmt 1               # program.c:41:16
	slli	a7, a2, 31
.Ltmp403:
	.loc	0 43 12                         # program.c:43:12
	srli	a2, a2, 1
.Ltmp404:
	#DEBUG_VALUE: soft_mul:ub <- $x12
	.loc	0 41 16                         # program.c:41:16
	srai	a7, a7, 31
	and	a7, a7, a6
	add	a0, a7, a0
.Ltmp405:
	#DEBUG_VALUE: soft_mul:res <- $x10
	.loc	0 42 12                         # program.c:42:12
	slli	a6, a6, 1
.Ltmp406:
	#DEBUG_VALUE: soft_mul:ua <- $x16
	.loc	0 40 5                          # program.c:40:5
	bnez	a2, .LBB0_153
.Ltmp407:
# %bb.154:                              #   in Loop: Header=BB0_2 Depth=1
	#DEBUG_VALUE: _start:s2_y <- [DW_OP_plus_uconst 84] [$x2+0]
	#DEBUG_VALUE: _start:s1_vy <- $x25
	#DEBUG_VALUE: _start:s1_vx <- $x19
	#DEBUG_VALUE: _start:s0_vy <- $x21
	#DEBUG_VALUE: _start:s0_vx <- $x26
	#DEBUG_VALUE: dy <- $x11
	#DEBUG_VALUE: dx <- $x15
	#DEBUG_VALUE: _start:s0_y <- [DW_OP_plus_uconst 76] [$x2+0]
	#DEBUG_VALUE: _start:s1_y <- [DW_OP_plus_uconst 68] [$x2+0]
	#DEBUG_VALUE: _start:s1_x <- [DW_OP_plus_uconst 64] [$x2+0]
	#DEBUG_VALUE: r_int <- $x13
	#DEBUG_VALUE: _start:s2_x <- [DW_OP_plus_uconst 88] [$x2+0]
	#DEBUG_VALUE: _start:G_M2 <- 30000
	#DEBUG_VALUE: _start:G_M1 <- 30000
	#DEBUG_VALUE: _start:G_M0 <- 150000
	#DEBUG_VALUE: _start:max_y_bounds <- 118784
	#DEBUG_VALUE: _start:max_x_bounds <- 159744
	#DEBUG_VALUE: _start:ONE <- 256
	#DEBUG_VALUE: _start:FRACTION_BITS <- 8
	#DEBUG_VALUE: soft_mul:a <- $x13
	#DEBUG_VALUE: soft_mul:sign <- undef
	#DEBUG_VALUE: soft_mul:b <- undef
	#DEBUG_VALUE: soft_mul:ua <- $x13
	#DEBUG_VALUE: soft_mul:ub <- undef
	#DEBUG_VALUE: soft_mul:res <- 0
	.loc	0 0 5 is_stmt 0                 # program.c:0:5
	li	a2, 0
.Ltmp408:
	.loc	0 40 5                          # program.c:40:5
	beqz	a0, .LBB0_157
.Ltmp409:
# %bb.155:                              #   in Loop: Header=BB0_2 Depth=1
	#DEBUG_VALUE: soft_mul:res <- 0
	#DEBUG_VALUE: soft_mul:ua <- $x13
	#DEBUG_VALUE: soft_mul:a <- $x13
	#DEBUG_VALUE: _start:s2_y <- [DW_OP_plus_uconst 84] [$x2+0]
	#DEBUG_VALUE: _start:s1_vy <- $x25
	#DEBUG_VALUE: _start:s1_vx <- $x19
	#DEBUG_VALUE: _start:s0_vy <- $x21
	#DEBUG_VALUE: _start:s0_vx <- $x26
	#DEBUG_VALUE: dy <- $x11
	#DEBUG_VALUE: dx <- $x15
	#DEBUG_VALUE: _start:s0_y <- [DW_OP_plus_uconst 76] [$x2+0]
	#DEBUG_VALUE: _start:s1_y <- [DW_OP_plus_uconst 68] [$x2+0]
	#DEBUG_VALUE: _start:s1_x <- [DW_OP_plus_uconst 64] [$x2+0]
	#DEBUG_VALUE: r_int <- $x13
	#DEBUG_VALUE: _start:s2_x <- [DW_OP_plus_uconst 88] [$x2+0]
	#DEBUG_VALUE: _start:G_M2 <- 30000
	#DEBUG_VALUE: _start:G_M1 <- 30000
	#DEBUG_VALUE: _start:G_M0 <- 150000
	#DEBUG_VALUE: _start:max_y_bounds <- 118784
	#DEBUG_VALUE: _start:max_x_bounds <- 159744
	#DEBUG_VALUE: _start:ONE <- 256
	#DEBUG_VALUE: _start:FRACTION_BITS <- 8
	.loc	0 38 11 is_stmt 1               # program.c:38:11
	srai	a6, a0, 31
	xor	a7, a0, a6
	sub	a6, a7, a6
.Ltmp410:
	#DEBUG_VALUE: soft_mul:b <- $x16
	#DEBUG_VALUE: soft_mul:ub <- $x16
.LBB0_156:                              #   Parent Loop BB0_2 Depth=1
                                        # =>  This Inner Loop Header: Depth=2
	#DEBUG_VALUE: soft_mul:ub <- $x16
	#DEBUG_VALUE: soft_mul:ua <- $x13
	#DEBUG_VALUE: _start:s2_y <- [DW_OP_plus_uconst 84] [$x2+0]
	#DEBUG_VALUE: _start:s1_vy <- $x25
	#DEBUG_VALUE: _start:s1_vx <- $x19
	#DEBUG_VALUE: _start:s0_vy <- $x21
	#DEBUG_VALUE: _start:s0_vx <- $x26
	#DEBUG_VALUE: dy <- $x11
	#DEBUG_VALUE: dx <- $x15
	#DEBUG_VALUE: _start:s0_y <- [DW_OP_plus_uconst 76] [$x2+0]
	#DEBUG_VALUE: _start:s1_y <- [DW_OP_plus_uconst 68] [$x2+0]
	#DEBUG_VALUE: _start:s1_x <- [DW_OP_plus_uconst 64] [$x2+0]
	#DEBUG_VALUE: _start:s2_x <- [DW_OP_plus_uconst 88] [$x2+0]
	#DEBUG_VALUE: _start:G_M2 <- 30000
	#DEBUG_VALUE: _start:G_M1 <- 30000
	#DEBUG_VALUE: _start:G_M0 <- 150000
	#DEBUG_VALUE: _start:max_y_bounds <- 118784
	#DEBUG_VALUE: _start:max_x_bounds <- 159744
	#DEBUG_VALUE: _start:ONE <- 256
	#DEBUG_VALUE: _start:FRACTION_BITS <- 8
	#DEBUG_VALUE: soft_mul:ua <- $x13
	#DEBUG_VALUE: soft_mul:ub <- $x16
	#DEBUG_VALUE: soft_mul:res <- $x12
	.loc	0 41 16                         # program.c:41:16
	slli	a7, a6, 31
.Ltmp411:
	.loc	0 43 12                         # program.c:43:12
	srli	a6, a6, 1
.Ltmp412:
	#DEBUG_VALUE: soft_mul:ub <- $x16
	.loc	0 41 16                         # program.c:41:16
	srai	a7, a7, 31
	and	a7, a7, a3
	add	a2, a7, a2
.Ltmp413:
	#DEBUG_VALUE: soft_mul:res <- $x12
	.loc	0 42 12                         # program.c:42:12
	slli	a3, a3, 1
.Ltmp414:
	#DEBUG_VALUE: soft_mul:ua <- $x13
	.loc	0 40 5                          # program.c:40:5
	bnez	a6, .LBB0_156
.Ltmp415:
.LBB0_157:                              #   in Loop: Header=BB0_2 Depth=1
	#DEBUG_VALUE: soft_mul:ua <- $x13
	#DEBUG_VALUE: _start:s2_y <- [DW_OP_plus_uconst 84] [$x2+0]
	#DEBUG_VALUE: _start:s1_vy <- $x25
	#DEBUG_VALUE: _start:s1_vx <- $x19
	#DEBUG_VALUE: _start:s0_vy <- $x21
	#DEBUG_VALUE: _start:s0_vx <- $x26
	#DEBUG_VALUE: dy <- $x11
	#DEBUG_VALUE: dx <- $x15
	#DEBUG_VALUE: _start:s0_y <- [DW_OP_plus_uconst 76] [$x2+0]
	#DEBUG_VALUE: _start:s1_y <- [DW_OP_plus_uconst 68] [$x2+0]
	#DEBUG_VALUE: _start:s1_x <- [DW_OP_plus_uconst 64] [$x2+0]
	#DEBUG_VALUE: _start:s2_x <- [DW_OP_plus_uconst 88] [$x2+0]
	#DEBUG_VALUE: _start:G_M2 <- 30000
	#DEBUG_VALUE: _start:G_M1 <- 30000
	#DEBUG_VALUE: _start:G_M0 <- 150000
	#DEBUG_VALUE: _start:max_y_bounds <- 118784
	#DEBUG_VALUE: _start:max_x_bounds <- 159744
	#DEBUG_VALUE: _start:ONE <- 256
	#DEBUG_VALUE: _start:FRACTION_BITS <- 8
	.loc	0 45 12                         # program.c:45:12
	bltz	a0, .LBB0_159
.Ltmp416:
# %bb.158:                              #   in Loop: Header=BB0_2 Depth=1
	#DEBUG_VALUE: _start:s2_y <- [DW_OP_plus_uconst 84] [$x2+0]
	#DEBUG_VALUE: _start:s1_vy <- $x25
	#DEBUG_VALUE: _start:s1_vx <- $x19
	#DEBUG_VALUE: _start:s0_vy <- $x21
	#DEBUG_VALUE: _start:s0_vx <- $x26
	#DEBUG_VALUE: dy <- $x11
	#DEBUG_VALUE: dx <- $x15
	#DEBUG_VALUE: _start:s0_y <- [DW_OP_plus_uconst 76] [$x2+0]
	#DEBUG_VALUE: _start:s1_y <- [DW_OP_plus_uconst 68] [$x2+0]
	#DEBUG_VALUE: _start:s1_x <- [DW_OP_plus_uconst 64] [$x2+0]
	#DEBUG_VALUE: _start:s2_x <- [DW_OP_plus_uconst 88] [$x2+0]
	#DEBUG_VALUE: _start:G_M2 <- 30000
	#DEBUG_VALUE: _start:G_M1 <- 30000
	#DEBUG_VALUE: _start:G_M0 <- 150000
	#DEBUG_VALUE: _start:max_y_bounds <- 118784
	#DEBUG_VALUE: _start:max_x_bounds <- 159744
	#DEBUG_VALUE: _start:ONE <- 256
	#DEBUG_VALUE: _start:FRACTION_BITS <- 8
	.loc	0 0 12 is_stmt 0                # program.c:0:12
	mv	a0, a2
.Ltmp417:
	#DEBUG_VALUE: r_cubed <- $x10
	.loc	0 197 24 is_stmt 1              # program.c:197:24
	srai	a7, a5, 8
.Ltmp418:
	#DEBUG_VALUE: scaled_dx <- $x17
	#DEBUG_VALUE: scaled_dy <- undef
	#DEBUG_VALUE: soft_mul:b <- $x17
	#DEBUG_VALUE: soft_mul:res <- 0
	#DEBUG_VALUE: soft_mul:sign <- 1
	#DEBUG_VALUE: soft_mul:a <- 30000
	.loc	0 38 11                         # program.c:38:11
	xor	a3, a7, a4
	sub	t1, a3, a4
.Ltmp419:
	#DEBUG_VALUE: soft_mul:b <- $x6
	#DEBUG_VALUE: soft_mul:sign <- undef
	#DEBUG_VALUE: soft_mul:ub <- $x6
	#DEBUG_VALUE: soft_mul:ua <- 30000
	.loc	0 0 11 is_stmt 0                # program.c:0:11
	li	a3, 0
.Ltmp420:
	.loc	0 40 5 is_stmt 1                # program.c:40:5
	bnez	a7, .LBB0_160
	j	.LBB0_162
.Ltmp421:
.LBB0_159:                              #   in Loop: Header=BB0_2 Depth=1
	#DEBUG_VALUE: soft_mul:ua <- $x13
	#DEBUG_VALUE: _start:s2_y <- [DW_OP_plus_uconst 84] [$x2+0]
	#DEBUG_VALUE: _start:s1_vy <- $x25
	#DEBUG_VALUE: _start:s1_vx <- $x19
	#DEBUG_VALUE: _start:s0_vy <- $x21
	#DEBUG_VALUE: _start:s0_vx <- $x26
	#DEBUG_VALUE: dy <- $x11
	#DEBUG_VALUE: dx <- $x15
	#DEBUG_VALUE: _start:s0_y <- [DW_OP_plus_uconst 76] [$x2+0]
	#DEBUG_VALUE: _start:s1_y <- [DW_OP_plus_uconst 68] [$x2+0]
	#DEBUG_VALUE: _start:s1_x <- [DW_OP_plus_uconst 64] [$x2+0]
	#DEBUG_VALUE: _start:s2_x <- [DW_OP_plus_uconst 88] [$x2+0]
	#DEBUG_VALUE: _start:G_M2 <- 30000
	#DEBUG_VALUE: _start:G_M1 <- 30000
	#DEBUG_VALUE: _start:G_M0 <- 150000
	#DEBUG_VALUE: _start:max_y_bounds <- 118784
	#DEBUG_VALUE: _start:max_x_bounds <- 159744
	#DEBUG_VALUE: _start:ONE <- 256
	#DEBUG_VALUE: _start:FRACTION_BITS <- 8
	.loc	0 45 12                         # program.c:45:12
	neg	a0, a2
.Ltmp422:
	#DEBUG_VALUE: r_cubed <- $x10
	.loc	0 197 24                        # program.c:197:24
	srai	a7, a5, 8
.Ltmp423:
	#DEBUG_VALUE: scaled_dx <- $x17
	#DEBUG_VALUE: scaled_dy <- undef
	#DEBUG_VALUE: soft_mul:b <- $x17
	#DEBUG_VALUE: soft_mul:res <- 0
	#DEBUG_VALUE: soft_mul:sign <- 1
	#DEBUG_VALUE: soft_mul:a <- 30000
	.loc	0 38 11                         # program.c:38:11
	xor	a3, a7, a4
.Ltmp424:
	sub	t1, a3, a4
.Ltmp425:
	#DEBUG_VALUE: soft_mul:b <- $x6
	#DEBUG_VALUE: soft_mul:sign <- undef
	#DEBUG_VALUE: soft_mul:ub <- $x6
	#DEBUG_VALUE: soft_mul:ua <- 30000
	.loc	0 0 11 is_stmt 0                # program.c:0:11
	li	a3, 0
.Ltmp426:
	.loc	0 40 5 is_stmt 1                # program.c:40:5
	beqz	a7, .LBB0_162
.Ltmp427:
.LBB0_160:                              #   in Loop: Header=BB0_2 Depth=1
	#DEBUG_VALUE: soft_mul:ua <- 30000
	#DEBUG_VALUE: soft_mul:ub <- $x6
	#DEBUG_VALUE: soft_mul:b <- $x6
	#DEBUG_VALUE: soft_mul:a <- 30000
	#DEBUG_VALUE: soft_mul:res <- 0
	#DEBUG_VALUE: _start:s2_y <- [DW_OP_plus_uconst 84] [$x2+0]
	#DEBUG_VALUE: scaled_dx <- $x17
	#DEBUG_VALUE: _start:s1_vy <- $x25
	#DEBUG_VALUE: _start:s1_vx <- $x19
	#DEBUG_VALUE: _start:s0_vy <- $x21
	#DEBUG_VALUE: _start:s0_vx <- $x26
	#DEBUG_VALUE: dy <- $x11
	#DEBUG_VALUE: dx <- $x15
	#DEBUG_VALUE: _start:s0_y <- [DW_OP_plus_uconst 76] [$x2+0]
	#DEBUG_VALUE: _start:s1_y <- [DW_OP_plus_uconst 68] [$x2+0]
	#DEBUG_VALUE: _start:s1_x <- [DW_OP_plus_uconst 64] [$x2+0]
	#DEBUG_VALUE: r_cubed <- $x10
	#DEBUG_VALUE: _start:s2_x <- [DW_OP_plus_uconst 88] [$x2+0]
	#DEBUG_VALUE: _start:G_M2 <- 30000
	#DEBUG_VALUE: _start:G_M1 <- 30000
	#DEBUG_VALUE: _start:G_M0 <- 150000
	#DEBUG_VALUE: _start:max_y_bounds <- 118784
	#DEBUG_VALUE: _start:max_x_bounds <- 159744
	#DEBUG_VALUE: _start:ONE <- 256
	#DEBUG_VALUE: _start:FRACTION_BITS <- 8
	.loc	0 0 5 is_stmt 0                 # program.c:0:5
	addi	a4, ra, 1328
	mv	a6, t1
.Ltmp428:
.LBB0_161:                              #   Parent Loop BB0_2 Depth=1
                                        # =>  This Inner Loop Header: Depth=2
	#DEBUG_VALUE: soft_mul:b <- $x6
	#DEBUG_VALUE: soft_mul:a <- 30000
	#DEBUG_VALUE: _start:s2_y <- [DW_OP_plus_uconst 84] [$x2+0]
	#DEBUG_VALUE: scaled_dx <- $x17
	#DEBUG_VALUE: _start:s1_vy <- $x25
	#DEBUG_VALUE: _start:s1_vx <- $x19
	#DEBUG_VALUE: _start:s0_vy <- $x21
	#DEBUG_VALUE: _start:s0_vx <- $x26
	#DEBUG_VALUE: dy <- $x11
	#DEBUG_VALUE: dx <- $x15
	#DEBUG_VALUE: _start:s0_y <- [DW_OP_plus_uconst 76] [$x2+0]
	#DEBUG_VALUE: _start:s1_y <- [DW_OP_plus_uconst 68] [$x2+0]
	#DEBUG_VALUE: _start:s1_x <- [DW_OP_plus_uconst 64] [$x2+0]
	#DEBUG_VALUE: r_cubed <- $x10
	#DEBUG_VALUE: _start:s2_x <- [DW_OP_plus_uconst 88] [$x2+0]
	#DEBUG_VALUE: _start:G_M2 <- 30000
	#DEBUG_VALUE: _start:G_M1 <- 30000
	#DEBUG_VALUE: _start:G_M0 <- 150000
	#DEBUG_VALUE: _start:max_y_bounds <- 118784
	#DEBUG_VALUE: _start:max_x_bounds <- 159744
	#DEBUG_VALUE: _start:ONE <- 256
	#DEBUG_VALUE: _start:FRACTION_BITS <- 8
	#DEBUG_VALUE: soft_mul:res <- $x13
	#DEBUG_VALUE: soft_mul:ub <- $x16
	#DEBUG_VALUE: soft_mul:ua <- $x14
	.loc	0 41 16 is_stmt 1               # program.c:41:16
	slli	t0, a6, 31
.Ltmp429:
	.loc	0 43 12                         # program.c:43:12
	srli	a6, a6, 1
.Ltmp430:
	#DEBUG_VALUE: soft_mul:ub <- $x16
	.loc	0 41 16                         # program.c:41:16
	srai	t0, t0, 31
	and	t0, t0, a4
	add	a3, t0, a3
.Ltmp431:
	#DEBUG_VALUE: soft_mul:res <- $x13
	.loc	0 42 12                         # program.c:42:12
	slli	a4, a4, 1
.Ltmp432:
	#DEBUG_VALUE: soft_mul:ua <- $x14
	.loc	0 40 5                          # program.c:40:5
	bnez	a6, .LBB0_161
.Ltmp433:
.LBB0_162:                              #   in Loop: Header=BB0_2 Depth=1
	#DEBUG_VALUE: _start:s2_y <- [DW_OP_plus_uconst 84] [$x2+0]
	#DEBUG_VALUE: scaled_dx <- $x17
	#DEBUG_VALUE: _start:s1_vy <- $x25
	#DEBUG_VALUE: _start:s1_vx <- $x19
	#DEBUG_VALUE: _start:s0_vy <- $x21
	#DEBUG_VALUE: _start:s0_vx <- $x26
	#DEBUG_VALUE: dy <- $x11
	#DEBUG_VALUE: dx <- $x15
	#DEBUG_VALUE: _start:s0_y <- [DW_OP_plus_uconst 76] [$x2+0]
	#DEBUG_VALUE: _start:s1_y <- [DW_OP_plus_uconst 68] [$x2+0]
	#DEBUG_VALUE: _start:s1_x <- [DW_OP_plus_uconst 64] [$x2+0]
	#DEBUG_VALUE: r_cubed <- $x10
	#DEBUG_VALUE: _start:s2_x <- [DW_OP_plus_uconst 88] [$x2+0]
	#DEBUG_VALUE: _start:G_M2 <- 30000
	#DEBUG_VALUE: _start:G_M1 <- 30000
	#DEBUG_VALUE: _start:G_M0 <- 150000
	#DEBUG_VALUE: _start:max_y_bounds <- 118784
	#DEBUG_VALUE: _start:max_x_bounds <- 159744
	#DEBUG_VALUE: _start:ONE <- 256
	#DEBUG_VALUE: _start:FRACTION_BITS <- 8
	#DEBUG_VALUE: scaled_dy <- undef
	#DEBUG_VALUE: soft_div:num <- undef
	.loc	0 0 5 is_stmt 0                 # program.c:0:5
	srai	a4, a2, 31
.Ltmp434:
	#DEBUG_VALUE: soft_div:den <- $x10
	.loc	0 50 13 is_stmt 1               # program.c:50:13
	beqz	a0, .LBB0_167
.Ltmp435:
# %bb.163:                              #   in Loop: Header=BB0_2 Depth=1
	#DEBUG_VALUE: _start:s2_y <- [DW_OP_plus_uconst 84] [$x2+0]
	#DEBUG_VALUE: scaled_dx <- $x17
	#DEBUG_VALUE: _start:s1_vy <- $x25
	#DEBUG_VALUE: _start:s1_vx <- $x19
	#DEBUG_VALUE: _start:s0_vy <- $x21
	#DEBUG_VALUE: _start:s0_vx <- $x26
	#DEBUG_VALUE: dy <- $x11
	#DEBUG_VALUE: dx <- $x15
	#DEBUG_VALUE: _start:s0_y <- [DW_OP_plus_uconst 76] [$x2+0]
	#DEBUG_VALUE: _start:s1_y <- [DW_OP_plus_uconst 68] [$x2+0]
	#DEBUG_VALUE: _start:s1_x <- [DW_OP_plus_uconst 64] [$x2+0]
	#DEBUG_VALUE: r_cubed <- $x10
	#DEBUG_VALUE: _start:s2_x <- [DW_OP_plus_uconst 88] [$x2+0]
	#DEBUG_VALUE: _start:G_M2 <- 30000
	#DEBUG_VALUE: _start:G_M1 <- 30000
	#DEBUG_VALUE: _start:G_M0 <- 150000
	#DEBUG_VALUE: _start:max_y_bounds <- 118784
	#DEBUG_VALUE: _start:max_x_bounds <- 159744
	#DEBUG_VALUE: _start:ONE <- 256
	#DEBUG_VALUE: _start:FRACTION_BITS <- 8
	.loc	0 0 13 is_stmt 0                # program.c:0:13
	mv	a6, a3
.Ltmp436:
	.loc	0 45 12 is_stmt 1               # program.c:45:12
	bgez	a7, .LBB0_165
.Ltmp437:
# %bb.164:                              #   in Loop: Header=BB0_2 Depth=1
	#DEBUG_VALUE: _start:s2_y <- [DW_OP_plus_uconst 84] [$x2+0]
	#DEBUG_VALUE: scaled_dx <- $x17
	#DEBUG_VALUE: _start:s1_vy <- $x25
	#DEBUG_VALUE: _start:s1_vx <- $x19
	#DEBUG_VALUE: _start:s0_vy <- $x21
	#DEBUG_VALUE: _start:s0_vx <- $x26
	#DEBUG_VALUE: dy <- $x11
	#DEBUG_VALUE: dx <- $x15
	#DEBUG_VALUE: _start:s0_y <- [DW_OP_plus_uconst 76] [$x2+0]
	#DEBUG_VALUE: _start:s1_y <- [DW_OP_plus_uconst 68] [$x2+0]
	#DEBUG_VALUE: _start:s1_x <- [DW_OP_plus_uconst 64] [$x2+0]
	#DEBUG_VALUE: r_cubed <- $x10
	#DEBUG_VALUE: _start:s2_x <- [DW_OP_plus_uconst 88] [$x2+0]
	#DEBUG_VALUE: _start:G_M2 <- 30000
	#DEBUG_VALUE: _start:G_M1 <- 30000
	#DEBUG_VALUE: _start:G_M0 <- 150000
	#DEBUG_VALUE: _start:max_y_bounds <- 118784
	#DEBUG_VALUE: _start:max_x_bounds <- 159744
	#DEBUG_VALUE: _start:ONE <- 256
	#DEBUG_VALUE: _start:FRACTION_BITS <- 8
	.loc	0 0 12 is_stmt 0                # program.c:0:12
	neg	a6, a3
.Ltmp438:
.LBB0_165:                              #   in Loop: Header=BB0_2 Depth=1
	#DEBUG_VALUE: _start:s2_y <- [DW_OP_plus_uconst 84] [$x2+0]
	#DEBUG_VALUE: scaled_dx <- $x17
	#DEBUG_VALUE: _start:s1_vy <- $x25
	#DEBUG_VALUE: _start:s1_vx <- $x19
	#DEBUG_VALUE: _start:s0_vy <- $x21
	#DEBUG_VALUE: _start:s0_vx <- $x26
	#DEBUG_VALUE: dy <- $x11
	#DEBUG_VALUE: dx <- $x15
	#DEBUG_VALUE: _start:s0_y <- [DW_OP_plus_uconst 76] [$x2+0]
	#DEBUG_VALUE: _start:s1_y <- [DW_OP_plus_uconst 68] [$x2+0]
	#DEBUG_VALUE: _start:s1_x <- [DW_OP_plus_uconst 64] [$x2+0]
	#DEBUG_VALUE: r_cubed <- $x10
	#DEBUG_VALUE: _start:s2_x <- [DW_OP_plus_uconst 88] [$x2+0]
	#DEBUG_VALUE: _start:G_M2 <- 30000
	#DEBUG_VALUE: _start:G_M1 <- 30000
	#DEBUG_VALUE: _start:G_M0 <- 150000
	#DEBUG_VALUE: _start:max_y_bounds <- 118784
	#DEBUG_VALUE: _start:max_x_bounds <- 159744
	#DEBUG_VALUE: _start:ONE <- 256
	#DEBUG_VALUE: _start:FRACTION_BITS <- 8
	#DEBUG_VALUE: soft_div:num <- $x16
	#DEBUG_VALUE: soft_div:sign <- 1
	.loc	0 52 13 is_stmt 1               # program.c:52:13
	srai	t0, a3, 31
	xor	a3, a3, t0
	sub	t0, a3, t0
.Ltmp439:
	#DEBUG_VALUE: soft_div:num <- $x5
	#DEBUG_VALUE: soft_div:sign <- undef
	#DEBUG_VALUE: soft_div:n <- $x5
	.loc	0 53 13                         # program.c:53:13
	xor	a3, a2, a4
	sub	t3, a3, a4
.Ltmp440:
	#DEBUG_VALUE: soft_div:den <- $x28
	#DEBUG_VALUE: soft_div:d <- $x28
	#DEBUG_VALUE: soft_div:res <- 0
	#DEBUG_VALUE: soft_div:current <- 1
	.loc	0 60 5                          # program.c:60:5
	bgeu	t0, t3, .LBB0_168
.Ltmp441:
# %bb.166:                              #   in Loop: Header=BB0_2 Depth=1
	#DEBUG_VALUE: soft_div:current <- 1
	#DEBUG_VALUE: soft_div:res <- 0
	#DEBUG_VALUE: soft_div:d <- $x28
	#DEBUG_VALUE: soft_div:den <- $x28
	#DEBUG_VALUE: soft_div:n <- $x5
	#DEBUG_VALUE: soft_div:num <- $x5
	#DEBUG_VALUE: _start:s2_y <- [DW_OP_plus_uconst 84] [$x2+0]
	#DEBUG_VALUE: scaled_dx <- $x17
	#DEBUG_VALUE: _start:s1_vy <- $x25
	#DEBUG_VALUE: _start:s1_vx <- $x19
	#DEBUG_VALUE: _start:s0_vy <- $x21
	#DEBUG_VALUE: _start:s0_vx <- $x26
	#DEBUG_VALUE: dy <- $x11
	#DEBUG_VALUE: dx <- $x15
	#DEBUG_VALUE: _start:s0_y <- [DW_OP_plus_uconst 76] [$x2+0]
	#DEBUG_VALUE: _start:s1_y <- [DW_OP_plus_uconst 68] [$x2+0]
	#DEBUG_VALUE: _start:s1_x <- [DW_OP_plus_uconst 64] [$x2+0]
	#DEBUG_VALUE: r_cubed <- $x10
	#DEBUG_VALUE: _start:s2_x <- [DW_OP_plus_uconst 88] [$x2+0]
	#DEBUG_VALUE: _start:G_M2 <- 30000
	#DEBUG_VALUE: _start:G_M1 <- 30000
	#DEBUG_VALUE: _start:G_M0 <- 150000
	#DEBUG_VALUE: _start:max_y_bounds <- 118784
	#DEBUG_VALUE: _start:max_x_bounds <- 159744
	#DEBUG_VALUE: _start:ONE <- 256
	#DEBUG_VALUE: _start:FRACTION_BITS <- 8
	.loc	0 0 5 is_stmt 0                 # program.c:0:5
	li	a3, 1
	.loc	0 60 5                          # program.c:60:5
	j	.LBB0_170
.Ltmp442:
.LBB0_167:                              #   in Loop: Header=BB0_2 Depth=1
	#DEBUG_VALUE: soft_div:den <- $x10
	#DEBUG_VALUE: _start:s2_y <- [DW_OP_plus_uconst 84] [$x2+0]
	#DEBUG_VALUE: scaled_dx <- $x17
	#DEBUG_VALUE: _start:s1_vy <- $x25
	#DEBUG_VALUE: _start:s1_vx <- $x19
	#DEBUG_VALUE: _start:s0_vy <- $x21
	#DEBUG_VALUE: _start:s0_vx <- $x26
	#DEBUG_VALUE: dy <- $x11
	#DEBUG_VALUE: dx <- $x15
	#DEBUG_VALUE: _start:s0_y <- [DW_OP_plus_uconst 76] [$x2+0]
	#DEBUG_VALUE: _start:s1_y <- [DW_OP_plus_uconst 68] [$x2+0]
	#DEBUG_VALUE: _start:s1_x <- [DW_OP_plus_uconst 64] [$x2+0]
	#DEBUG_VALUE: r_cubed <- $x10
	#DEBUG_VALUE: _start:s2_x <- [DW_OP_plus_uconst 88] [$x2+0]
	#DEBUG_VALUE: _start:G_M2 <- 30000
	#DEBUG_VALUE: _start:G_M1 <- 30000
	#DEBUG_VALUE: _start:G_M0 <- 150000
	#DEBUG_VALUE: _start:max_y_bounds <- 118784
	#DEBUG_VALUE: _start:max_x_bounds <- 159744
	#DEBUG_VALUE: _start:ONE <- 256
	#DEBUG_VALUE: _start:FRACTION_BITS <- 8
	.loc	0 0 5                           # program.c:0:5
	li	a3, 0
.Ltmp443:
	.loc	0 50 13 is_stmt 1               # program.c:50:13
	j	.LBB0_175
.Ltmp444:
.LBB0_168:                              #   in Loop: Header=BB0_2 Depth=1
	#DEBUG_VALUE: soft_div:current <- 1
	#DEBUG_VALUE: soft_div:res <- 0
	#DEBUG_VALUE: soft_div:d <- $x28
	#DEBUG_VALUE: soft_div:den <- $x28
	#DEBUG_VALUE: soft_div:n <- $x5
	#DEBUG_VALUE: soft_div:num <- $x5
	#DEBUG_VALUE: _start:s2_y <- [DW_OP_plus_uconst 84] [$x2+0]
	#DEBUG_VALUE: scaled_dx <- $x17
	#DEBUG_VALUE: _start:s1_vy <- $x25
	#DEBUG_VALUE: _start:s1_vx <- $x19
	#DEBUG_VALUE: _start:s0_vy <- $x21
	#DEBUG_VALUE: _start:s0_vx <- $x26
	#DEBUG_VALUE: dy <- $x11
	#DEBUG_VALUE: dx <- $x15
	#DEBUG_VALUE: _start:s0_y <- [DW_OP_plus_uconst 76] [$x2+0]
	#DEBUG_VALUE: _start:s1_y <- [DW_OP_plus_uconst 68] [$x2+0]
	#DEBUG_VALUE: _start:s1_x <- [DW_OP_plus_uconst 64] [$x2+0]
	#DEBUG_VALUE: r_cubed <- $x10
	#DEBUG_VALUE: _start:s2_x <- [DW_OP_plus_uconst 88] [$x2+0]
	#DEBUG_VALUE: _start:G_M2 <- 30000
	#DEBUG_VALUE: _start:G_M1 <- 30000
	#DEBUG_VALUE: _start:G_M0 <- 150000
	#DEBUG_VALUE: _start:max_y_bounds <- 118784
	#DEBUG_VALUE: _start:max_x_bounds <- 159744
	#DEBUG_VALUE: _start:ONE <- 256
	#DEBUG_VALUE: _start:FRACTION_BITS <- 8
	.loc	0 0 13 is_stmt 0                # program.c:0:13
	li	a3, 1
.Ltmp445:
.LBB0_169:                              #   Parent Loop BB0_2 Depth=1
                                        # =>  This Inner Loop Header: Depth=2
	#DEBUG_VALUE: soft_div:res <- 0
	#DEBUG_VALUE: soft_div:d <- $x28
	#DEBUG_VALUE: soft_div:n <- $x5
	#DEBUG_VALUE: soft_div:num <- $x5
	#DEBUG_VALUE: _start:s2_y <- [DW_OP_plus_uconst 84] [$x2+0]
	#DEBUG_VALUE: scaled_dx <- $x17
	#DEBUG_VALUE: _start:s1_vy <- $x25
	#DEBUG_VALUE: _start:s1_vx <- $x19
	#DEBUG_VALUE: _start:s0_vy <- $x21
	#DEBUG_VALUE: _start:s0_vx <- $x26
	#DEBUG_VALUE: dy <- $x11
	#DEBUG_VALUE: dx <- $x15
	#DEBUG_VALUE: _start:s0_y <- [DW_OP_plus_uconst 76] [$x2+0]
	#DEBUG_VALUE: _start:s1_y <- [DW_OP_plus_uconst 68] [$x2+0]
	#DEBUG_VALUE: _start:s1_x <- [DW_OP_plus_uconst 64] [$x2+0]
	#DEBUG_VALUE: r_cubed <- $x10
	#DEBUG_VALUE: _start:s2_x <- [DW_OP_plus_uconst 88] [$x2+0]
	#DEBUG_VALUE: _start:G_M2 <- 30000
	#DEBUG_VALUE: _start:G_M1 <- 30000
	#DEBUG_VALUE: _start:G_M0 <- 150000
	#DEBUG_VALUE: _start:max_y_bounds <- 118784
	#DEBUG_VALUE: _start:max_x_bounds <- 159744
	#DEBUG_VALUE: _start:ONE <- 256
	#DEBUG_VALUE: _start:FRACTION_BITS <- 8
	#DEBUG_VALUE: soft_div:d <- $x28
	#DEBUG_VALUE: soft_div:current <- $x13
	.loc	0 61 11 is_stmt 1               # program.c:61:11
	slli	t3, t3, 1
.Ltmp446:
	#DEBUG_VALUE: soft_div:d <- $x28
	.loc	0 62 17                         # program.c:62:17
	slli	a3, a3, 1
.Ltmp447:
	#DEBUG_VALUE: soft_div:current <- $x13
	.loc	0 60 5                          # program.c:60:5
	bgeu	t0, t3, .LBB0_169
.Ltmp448:
.LBB0_170:                              #   in Loop: Header=BB0_2 Depth=1
	#DEBUG_VALUE: soft_div:res <- 0
	#DEBUG_VALUE: soft_div:d <- $x28
	#DEBUG_VALUE: soft_div:n <- $x5
	#DEBUG_VALUE: soft_div:num <- $x5
	#DEBUG_VALUE: _start:s2_y <- [DW_OP_plus_uconst 84] [$x2+0]
	#DEBUG_VALUE: scaled_dx <- $x17
	#DEBUG_VALUE: _start:s1_vy <- $x25
	#DEBUG_VALUE: _start:s1_vx <- $x19
	#DEBUG_VALUE: _start:s0_vy <- $x21
	#DEBUG_VALUE: _start:s0_vx <- $x26
	#DEBUG_VALUE: dy <- $x11
	#DEBUG_VALUE: dx <- $x15
	#DEBUG_VALUE: _start:s0_y <- [DW_OP_plus_uconst 76] [$x2+0]
	#DEBUG_VALUE: _start:s1_y <- [DW_OP_plus_uconst 68] [$x2+0]
	#DEBUG_VALUE: _start:s1_x <- [DW_OP_plus_uconst 64] [$x2+0]
	#DEBUG_VALUE: r_cubed <- $x10
	#DEBUG_VALUE: _start:s2_x <- [DW_OP_plus_uconst 88] [$x2+0]
	#DEBUG_VALUE: _start:G_M2 <- 30000
	#DEBUG_VALUE: _start:G_M1 <- 30000
	#DEBUG_VALUE: _start:G_M0 <- 150000
	#DEBUG_VALUE: _start:max_y_bounds <- 118784
	#DEBUG_VALUE: _start:max_x_bounds <- 159744
	#DEBUG_VALUE: _start:ONE <- 256
	#DEBUG_VALUE: _start:FRACTION_BITS <- 8
	.loc	0 0 5 is_stmt 0                 # program.c:0:5
	sltiu	t2, a3, 2
	xori	t4, t2, 1
.Ltmp449:
